
gridbase.elf:     file format elf32-avr

Sections:
Idx Name          Size      VMA       LMA       File off  Algn
  0 .text         0000178a  00000000  00000000  00000094  2**1
                  CONTENTS, ALLOC, LOAD, READONLY, CODE
  1 .data         00000000  00800060  0000178a  0000181e  2**0
                  CONTENTS, ALLOC, LOAD, DATA
  2 .bss          00000577  00800060  00800060  0000181e  2**0
                  ALLOC
  3 .stab         000006cc  00000000  00000000  00001820  2**2
                  CONTENTS, READONLY, DEBUGGING
  4 .stabstr      00000085  00000000  00000000  00001eec  2**0
                  CONTENTS, READONLY, DEBUGGING
  5 .debug_aranges 000000e0  00000000  00000000  00001f78  2**3
                  CONTENTS, READONLY, DEBUGGING
  6 .debug_info   0000060b  00000000  00000000  00002058  2**0
                  CONTENTS, READONLY, DEBUGGING
  7 .debug_abbrev 0000008c  00000000  00000000  00002663  2**0
                  CONTENTS, READONLY, DEBUGGING
  8 .debug_line   000003f6  00000000  00000000  000026ef  2**0
                  CONTENTS, READONLY, DEBUGGING

Disassembly of section .text:

00000000 <__vectors>:
       0:	0c 94 2b 00 	jmp	0x56	; 0x56 <__ctors_end>
       4:	0c 94 0d 0a 	jmp	0x141a	; 0x141a <__vector_1>
       8:	0c 94 53 00 	jmp	0xa6	; 0xa6 <__bad_interrupt>
       c:	0c 94 53 00 	jmp	0xa6	; 0xa6 <__bad_interrupt>
      10:	0c 94 53 00 	jmp	0xa6	; 0xa6 <__bad_interrupt>
      14:	0c 94 ea 09 	jmp	0x13d4	; 0x13d4 <__vector_5>
      18:	0c 94 53 00 	jmp	0xa6	; 0xa6 <__bad_interrupt>
      1c:	0c 94 53 00 	jmp	0xa6	; 0xa6 <__bad_interrupt>
      20:	0c 94 53 00 	jmp	0xa6	; 0xa6 <__bad_interrupt>
      24:	0c 94 53 00 	jmp	0xa6	; 0xa6 <__bad_interrupt>
      28:	0c 94 53 00 	jmp	0xa6	; 0xa6 <__bad_interrupt>
      2c:	0c 94 a6 09 	jmp	0x134c	; 0x134c <__vector_11>
      30:	0c 94 53 00 	jmp	0xa6	; 0xa6 <__bad_interrupt>
      34:	0c 94 53 00 	jmp	0xa6	; 0xa6 <__bad_interrupt>
      38:	0c 94 53 00 	jmp	0xa6	; 0xa6 <__bad_interrupt>
      3c:	0c 94 53 00 	jmp	0xa6	; 0xa6 <__bad_interrupt>
      40:	0c 94 53 00 	jmp	0xa6	; 0xa6 <__bad_interrupt>
      44:	0c 94 53 00 	jmp	0xa6	; 0xa6 <__bad_interrupt>
      48:	0c 94 53 00 	jmp	0xa6	; 0xa6 <__bad_interrupt>
      4c:	0c 94 53 00 	jmp	0xa6	; 0xa6 <__bad_interrupt>
      50:	0c 94 53 00 	jmp	0xa6	; 0xa6 <__bad_interrupt>

00000054 <__ctors_start>:
      54:	49 0b       	sbc	r20, r25

00000056 <__ctors_end>:
      56:	11 24       	eor	r1, r1
      58:	1f be       	out	0x3f, r1	; 63
      5a:	cf e5       	ldi	r28, 0x5F	; 95
      5c:	d8 e0       	ldi	r29, 0x08	; 8
      5e:	de bf       	out	0x3e, r29	; 62
      60:	cd bf       	out	0x3d, r28	; 61

00000062 <__do_copy_data>:
      62:	10 e0       	ldi	r17, 0x00	; 0
      64:	a0 e6       	ldi	r26, 0x60	; 96
      66:	b0 e0       	ldi	r27, 0x00	; 0
      68:	ea e8       	ldi	r30, 0x8A	; 138
      6a:	f7 e1       	ldi	r31, 0x17	; 23
      6c:	02 c0       	rjmp	.+4      	; 0x72 <__do_copy_data+0x10>
      6e:	05 90       	lpm	r0, Z+
      70:	0d 92       	st	X+, r0
      72:	a0 36       	cpi	r26, 0x60	; 96
      74:	b1 07       	cpc	r27, r17
      76:	d9 f7       	brne	.-10     	; 0x6e <__do_copy_data+0xc>

00000078 <__do_clear_bss>:
      78:	15 e0       	ldi	r17, 0x05	; 5
      7a:	a0 e6       	ldi	r26, 0x60	; 96
      7c:	b0 e0       	ldi	r27, 0x00	; 0
      7e:	01 c0       	rjmp	.+2      	; 0x82 <.do_clear_bss_start>

00000080 <.do_clear_bss_loop>:
      80:	1d 92       	st	X+, r1

00000082 <.do_clear_bss_start>:
      82:	a7 3d       	cpi	r26, 0xD7	; 215
      84:	b1 07       	cpc	r27, r17
      86:	e1 f7       	brne	.-8      	; 0x80 <.do_clear_bss_loop>

00000088 <__do_global_ctors>:
      88:	10 e0       	ldi	r17, 0x00	; 0
      8a:	c6 e5       	ldi	r28, 0x56	; 86
      8c:	d0 e0       	ldi	r29, 0x00	; 0
      8e:	04 c0       	rjmp	.+8      	; 0x98 <__do_global_ctors+0x10>
      90:	22 97       	sbiw	r28, 0x02	; 2
      92:	fe 01       	movw	r30, r28
      94:	0e 94 bf 0b 	call	0x177e	; 0x177e <__tablejump__>
      98:	c4 35       	cpi	r28, 0x54	; 84
      9a:	d1 07       	cpc	r29, r17
      9c:	c9 f7       	brne	.-14     	; 0x90 <__do_global_ctors+0x8>
      9e:	0e 94 6a 0a 	call	0x14d4	; 0x14d4 <main>
      a2:	0c 94 c3 0b 	jmp	0x1786	; 0x1786 <_exit>

000000a6 <__bad_interrupt>:
      a6:	0c 94 00 00 	jmp	0	; 0x0 <__vectors>

000000aa <_Z6setPWMii>:
      aa:	90 93 45 05 	sts	0x0545, r25
      ae:	80 93 44 05 	sts	0x0544, r24
      b2:	70 93 43 05 	sts	0x0543, r23
      b6:	60 93 42 05 	sts	0x0542, r22
      ba:	08 95       	ret

000000bc <_Z12EEPROM_writehh>:
      bc:	9c b3       	in	r25, 0x1c	; 28
      be:	99 23       	and	r25, r25
      c0:	e9 f7       	brne	.-6      	; 0xbc <_Z12EEPROM_writehh>
      c2:	90 e0       	ldi	r25, 0x00	; 0
      c4:	9f bb       	out	0x1f, r25	; 31
      c6:	8e bb       	out	0x1e, r24	; 30
      c8:	6d bb       	out	0x1d, r22	; 29
      ca:	f8 94       	cli
      cc:	e2 9a       	sbi	0x1c, 2	; 28
      ce:	e1 9a       	sbi	0x1c, 1	; 28
      d0:	78 94       	sei
      d2:	08 95       	ret

000000d4 <_Z11EEPROM_readh>:
      d4:	9c b3       	in	r25, 0x1c	; 28
      d6:	99 23       	and	r25, r25
      d8:	e9 f7       	brne	.-6      	; 0xd4 <_Z11EEPROM_readh>
      da:	90 e0       	ldi	r25, 0x00	; 0
      dc:	9f bb       	out	0x1f, r25	; 31
      de:	8e bb       	out	0x1e, r24	; 30
      e0:	f8 94       	cli
      e2:	e0 9a       	sbi	0x1c, 0	; 28
      e4:	78 94       	sei
      e6:	8d b3       	in	r24, 0x1d	; 29
      e8:	08 95       	ret

000000ea <_Z18initialiseBotStatev>:
      ea:	8f ef       	ldi	r24, 0xFF	; 255
      ec:	9f ef       	ldi	r25, 0xFF	; 255
      ee:	90 93 4a 05 	sts	0x054A, r25
      f2:	80 93 49 05 	sts	0x0549, r24
      f6:	10 92 4c 05 	sts	0x054C, r1
      fa:	10 92 4b 05 	sts	0x054B, r1
      fe:	82 e0       	ldi	r24, 0x02	; 2
     100:	80 93 48 05 	sts	0x0548, r24
     104:	10 92 47 05 	sts	0x0547, r1
     108:	08 95       	ret

0000010a <_Z8adc_initv>:
     10a:	80 e4       	ldi	r24, 0x40	; 64
     10c:	87 b9       	out	0x07, r24	; 7
     10e:	87 e8       	ldi	r24, 0x87	; 135
     110:	86 b9       	out	0x06, r24	; 6
     112:	08 95       	ret

00000114 <_Z8adc_readh>:
     114:	97 b1       	in	r25, 0x07	; 7
     116:	87 70       	andi	r24, 0x07	; 7
     118:	98 7f       	andi	r25, 0xF8	; 248
     11a:	89 2b       	or	r24, r25
     11c:	87 b9       	out	0x07, r24	; 7
     11e:	36 9a       	sbi	0x06, 6	; 6
     120:	36 99       	sbic	0x06, 6	; 6
     122:	fe cf       	rjmp	.-4      	; 0x120 <_Z8adc_readh+0xc>
     124:	84 b1       	in	r24, 0x04	; 4
     126:	95 b1       	in	r25, 0x05	; 5
     128:	08 95       	ret

0000012a <_Z15writeNodeColourv>:
     12a:	90 91 4b 05 	lds	r25, 0x054B
     12e:	89 2f       	mov	r24, r25
     130:	88 0f       	add	r24, r24
     132:	88 0f       	add	r24, r24
     134:	89 0f       	add	r24, r25
     136:	90 91 49 05 	lds	r25, 0x0549
     13a:	89 0f       	add	r24, r25
     13c:	b4 99       	sbic	0x16, 4	; 22
     13e:	02 c0       	rjmp	.+4      	; 0x144 <_Z15writeNodeColourv+0x1a>
     140:	b6 9b       	sbis	0x16, 6	; 22
     142:	08 c0       	rjmp	.+16     	; 0x154 <_Z15writeNodeColourv+0x2a>
     144:	b4 99       	sbic	0x16, 4	; 22
     146:	02 c0       	rjmp	.+4      	; 0x14c <_Z15writeNodeColourv+0x22>
     148:	b5 9b       	sbis	0x16, 5	; 22
     14a:	04 c0       	rjmp	.+8      	; 0x154 <_Z15writeNodeColourv+0x2a>
     14c:	b5 99       	sbic	0x16, 5	; 22
     14e:	0f c0       	rjmp	.+30     	; 0x16e <_Z15writeNodeColourv+0x44>
     150:	b6 99       	sbic	0x16, 6	; 22
     152:	0d c0       	rjmp	.+26     	; 0x16e <_Z15writeNodeColourv+0x44>
     154:	60 e0       	ldi	r22, 0x00	; 0
     156:	0e 94 5e 00 	call	0xbc	; 0xbc <_Z12EEPROM_writehh>
     15a:	8f ef       	ldi	r24, 0xFF	; 255
     15c:	99 e6       	ldi	r25, 0x69	; 105
     15e:	a8 e1       	ldi	r26, 0x18	; 24
     160:	81 50       	subi	r24, 0x01	; 1
     162:	90 40       	sbci	r25, 0x00	; 0
     164:	a0 40       	sbci	r26, 0x00	; 0
     166:	e1 f7       	brne	.-8      	; 0x160 <_Z15writeNodeColourv+0x36>
     168:	00 c0       	rjmp	.+0      	; 0x16a <_Z15writeNodeColourv+0x40>
     16a:	00 00       	nop
     16c:	08 95       	ret
     16e:	61 e0       	ldi	r22, 0x01	; 1
     170:	0e 94 5e 00 	call	0xbc	; 0xbc <_Z12EEPROM_writehh>
     174:	08 95       	ret

00000176 <_Z11pathPlanner5Point9DirectionS_>:
     176:	0f 93       	push	r16
     178:	1f 93       	push	r17
     17a:	cf 93       	push	r28
     17c:	df 93       	push	r29
     17e:	dc 01       	movw	r26, r24
     180:	cb 01       	movw	r24, r22
     182:	ec 01       	movw	r28, r24
     184:	b8 01       	movw	r22, r16
     186:	c9 01       	movw	r24, r18
     188:	0c 17       	cp	r16, r28
     18a:	1d 07       	cpc	r17, r29
     18c:	99 f0       	breq	.+38     	; 0x1b4 <_Z11pathPlanner5Point9DirectionS_+0x3e>
     18e:	6c 1b       	sub	r22, r28
     190:	7d 0b       	sbc	r23, r29
     192:	16 16       	cp	r1, r22
     194:	17 06       	cpc	r1, r23
     196:	3c f4       	brge	.+14     	; 0x1a6 <_Z11pathPlanner5Point9DirectionS_+0x30>
     198:	43 30       	cpi	r20, 0x03	; 3
     19a:	49 f1       	breq	.+82     	; 0x1ee <_Z11pathPlanner5Point9DirectionS_+0x78>
     19c:	42 30       	cpi	r20, 0x02	; 2
     19e:	19 f1       	breq	.+70     	; 0x1e6 <_Z11pathPlanner5Point9DirectionS_+0x70>
     1a0:	44 23       	and	r20, r20
     1a2:	e9 f0       	breq	.+58     	; 0x1de <_Z11pathPlanner5Point9DirectionS_+0x68>
     1a4:	22 c0       	rjmp	.+68     	; 0x1ea <_Z11pathPlanner5Point9DirectionS_+0x74>
     1a6:	42 30       	cpi	r20, 0x02	; 2
     1a8:	11 f1       	breq	.+68     	; 0x1ee <_Z11pathPlanner5Point9DirectionS_+0x78>
     1aa:	43 30       	cpi	r20, 0x03	; 3
     1ac:	e1 f0       	breq	.+56     	; 0x1e6 <_Z11pathPlanner5Point9DirectionS_+0x70>
     1ae:	41 30       	cpi	r20, 0x01	; 1
     1b0:	e1 f4       	brne	.+56     	; 0x1ea <_Z11pathPlanner5Point9DirectionS_+0x74>
     1b2:	15 c0       	rjmp	.+42     	; 0x1de <_Z11pathPlanner5Point9DirectionS_+0x68>
     1b4:	2a 17       	cp	r18, r26
     1b6:	3b 07       	cpc	r19, r27
     1b8:	a1 f0       	breq	.+40     	; 0x1e2 <_Z11pathPlanner5Point9DirectionS_+0x6c>
     1ba:	8a 1b       	sub	r24, r26
     1bc:	9b 0b       	sbc	r25, r27
     1be:	18 16       	cp	r1, r24
     1c0:	19 06       	cpc	r1, r25
     1c2:	3c f4       	brge	.+14     	; 0x1d2 <_Z11pathPlanner5Point9DirectionS_+0x5c>
     1c4:	44 23       	and	r20, r20
     1c6:	99 f0       	breq	.+38     	; 0x1ee <_Z11pathPlanner5Point9DirectionS_+0x78>
     1c8:	41 30       	cpi	r20, 0x01	; 1
     1ca:	69 f0       	breq	.+26     	; 0x1e6 <_Z11pathPlanner5Point9DirectionS_+0x70>
     1cc:	42 30       	cpi	r20, 0x02	; 2
     1ce:	69 f4       	brne	.+26     	; 0x1ea <_Z11pathPlanner5Point9DirectionS_+0x74>
     1d0:	06 c0       	rjmp	.+12     	; 0x1de <_Z11pathPlanner5Point9DirectionS_+0x68>
     1d2:	41 30       	cpi	r20, 0x01	; 1
     1d4:	61 f0       	breq	.+24     	; 0x1ee <_Z11pathPlanner5Point9DirectionS_+0x78>
     1d6:	44 23       	and	r20, r20
     1d8:	31 f0       	breq	.+12     	; 0x1e6 <_Z11pathPlanner5Point9DirectionS_+0x70>
     1da:	43 30       	cpi	r20, 0x03	; 3
     1dc:	31 f4       	brne	.+12     	; 0x1ea <_Z11pathPlanner5Point9DirectionS_+0x74>
     1de:	82 e0       	ldi	r24, 0x02	; 2
     1e0:	07 c0       	rjmp	.+14     	; 0x1f0 <_Z11pathPlanner5Point9DirectionS_+0x7a>
     1e2:	84 e0       	ldi	r24, 0x04	; 4
     1e4:	05 c0       	rjmp	.+10     	; 0x1f0 <_Z11pathPlanner5Point9DirectionS_+0x7a>
     1e6:	80 e0       	ldi	r24, 0x00	; 0
     1e8:	03 c0       	rjmp	.+6      	; 0x1f0 <_Z11pathPlanner5Point9DirectionS_+0x7a>
     1ea:	81 e0       	ldi	r24, 0x01	; 1
     1ec:	01 c0       	rjmp	.+2      	; 0x1f0 <_Z11pathPlanner5Point9DirectionS_+0x7a>
     1ee:	83 e0       	ldi	r24, 0x03	; 3
     1f0:	df 91       	pop	r29
     1f2:	cf 91       	pop	r28
     1f4:	1f 91       	pop	r17
     1f6:	0f 91       	pop	r16
     1f8:	08 95       	ret

000001fa <_Z17pathPlannerDryRun5Point9Direction>:
     1fa:	0f 93       	push	r16
     1fc:	1f 93       	push	r17
     1fe:	8b 01       	movw	r16, r22
     200:	9c 01       	movw	r18, r24
     202:	cb 01       	movw	r24, r22
     204:	20 fd       	sbrc	r18, 0
     206:	0b c0       	rjmp	.+22     	; 0x21e <_Z17pathPlannerDryRun5Point9Direction+0x24>
     208:	64 30       	cpi	r22, 0x04	; 4
     20a:	71 05       	cpc	r23, r1
     20c:	e1 f0       	breq	.+56     	; 0x246 <_Z17pathPlannerDryRun5Point9Direction+0x4c>
     20e:	24 e0       	ldi	r18, 0x04	; 4
     210:	30 e0       	ldi	r19, 0x00	; 0
     212:	26 1b       	sub	r18, r22
     214:	37 0b       	sbc	r19, r23
     216:	12 16       	cp	r1, r18
     218:	13 06       	cpc	r1, r19
     21a:	3c f0       	brlt	.+14     	; 0x22a <_Z17pathPlannerDryRun5Point9Direction+0x30>
     21c:	0d c0       	rjmp	.+26     	; 0x238 <_Z17pathPlannerDryRun5Point9Direction+0x3e>
     21e:	00 97       	sbiw	r24, 0x00	; 0
     220:	91 f0       	breq	.+36     	; 0x246 <_Z17pathPlannerDryRun5Point9Direction+0x4c>
     222:	16 16       	cp	r1, r22
     224:	17 06       	cpc	r1, r23
     226:	41 f0       	breq	.+16     	; 0x238 <_Z17pathPlannerDryRun5Point9Direction+0x3e>
     228:	3c f0       	brlt	.+14     	; 0x238 <_Z17pathPlannerDryRun5Point9Direction+0x3e>
     22a:	43 30       	cpi	r20, 0x03	; 3
     22c:	e9 f0       	breq	.+58     	; 0x268 <_Z17pathPlannerDryRun5Point9Direction+0x6e>
     22e:	42 30       	cpi	r20, 0x02	; 2
     230:	e9 f0       	breq	.+58     	; 0x26c <_Z17pathPlannerDryRun5Point9Direction+0x72>
     232:	44 23       	and	r20, r20
     234:	a9 f0       	breq	.+42     	; 0x260 <_Z17pathPlannerDryRun5Point9Direction+0x66>
     236:	1c c0       	rjmp	.+56     	; 0x270 <_Z17pathPlannerDryRun5Point9Direction+0x76>
     238:	42 30       	cpi	r20, 0x02	; 2
     23a:	b1 f0       	breq	.+44     	; 0x268 <_Z17pathPlannerDryRun5Point9Direction+0x6e>
     23c:	43 30       	cpi	r20, 0x03	; 3
     23e:	b1 f0       	breq	.+44     	; 0x26c <_Z17pathPlannerDryRun5Point9Direction+0x72>
     240:	41 30       	cpi	r20, 0x01	; 1
     242:	b1 f4       	brne	.+44     	; 0x270 <_Z17pathPlannerDryRun5Point9Direction+0x76>
     244:	0d c0       	rjmp	.+26     	; 0x260 <_Z17pathPlannerDryRun5Point9Direction+0x66>
     246:	85 e0       	ldi	r24, 0x05	; 5
     248:	90 e0       	ldi	r25, 0x00	; 0
     24a:	82 1b       	sub	r24, r18
     24c:	93 0b       	sbc	r25, r19
     24e:	18 16       	cp	r1, r24
     250:	19 06       	cpc	r1, r25
     252:	44 f4       	brge	.+16     	; 0x264 <_Z17pathPlannerDryRun5Point9Direction+0x6a>
     254:	44 23       	and	r20, r20
     256:	41 f0       	breq	.+16     	; 0x268 <_Z17pathPlannerDryRun5Point9Direction+0x6e>
     258:	41 30       	cpi	r20, 0x01	; 1
     25a:	41 f0       	breq	.+16     	; 0x26c <_Z17pathPlannerDryRun5Point9Direction+0x72>
     25c:	42 30       	cpi	r20, 0x02	; 2
     25e:	41 f4       	brne	.+16     	; 0x270 <_Z17pathPlannerDryRun5Point9Direction+0x76>
     260:	82 e0       	ldi	r24, 0x02	; 2
     262:	07 c0       	rjmp	.+14     	; 0x272 <_Z17pathPlannerDryRun5Point9Direction+0x78>
     264:	84 e0       	ldi	r24, 0x04	; 4
     266:	05 c0       	rjmp	.+10     	; 0x272 <_Z17pathPlannerDryRun5Point9Direction+0x78>
     268:	83 e0       	ldi	r24, 0x03	; 3
     26a:	03 c0       	rjmp	.+6      	; 0x272 <_Z17pathPlannerDryRun5Point9Direction+0x78>
     26c:	80 e0       	ldi	r24, 0x00	; 0
     26e:	01 c0       	rjmp	.+2      	; 0x272 <_Z17pathPlannerDryRun5Point9Direction+0x78>
     270:	81 e0       	ldi	r24, 0x01	; 1
     272:	1f 91       	pop	r17
     274:	0f 91       	pop	r16
     276:	08 95       	ret

00000278 <_Z10linefollowv>:
     278:	b4 9b       	sbis	0x16, 4	; 22
     27a:	22 c0       	rjmp	.+68     	; 0x2c0 <_Z10linefollowv+0x48>
     27c:	b5 9b       	sbis	0x16, 5	; 22
     27e:	20 c0       	rjmp	.+64     	; 0x2c0 <_Z10linefollowv+0x48>
     280:	b6 9b       	sbis	0x16, 6	; 22
     282:	1e c0       	rjmp	.+60     	; 0x2c0 <_Z10linefollowv+0x48>
     284:	81 e1       	ldi	r24, 0x11	; 17
     286:	1a c0       	rjmp	.+52     	; 0x2bc <_Z10linefollowv+0x44>
     288:	b5 9b       	sbis	0x16, 5	; 22
     28a:	1c c0       	rjmp	.+56     	; 0x2c4 <_Z10linefollowv+0x4c>
     28c:	b6 99       	sbic	0x16, 6	; 22
     28e:	15 c0       	rjmp	.+42     	; 0x2ba <_Z10linefollowv+0x42>
     290:	19 c0       	rjmp	.+50     	; 0x2c4 <_Z10linefollowv+0x4c>
     292:	b5 99       	sbic	0x16, 5	; 22
     294:	19 c0       	rjmp	.+50     	; 0x2c8 <_Z10linefollowv+0x50>
     296:	b6 99       	sbic	0x16, 6	; 22
     298:	10 c0       	rjmp	.+32     	; 0x2ba <_Z10linefollowv+0x42>
     29a:	16 c0       	rjmp	.+44     	; 0x2c8 <_Z10linefollowv+0x50>
     29c:	b5 9b       	sbis	0x16, 5	; 22
     29e:	16 c0       	rjmp	.+44     	; 0x2cc <_Z10linefollowv+0x54>
     2a0:	b6 99       	sbic	0x16, 6	; 22
     2a2:	14 c0       	rjmp	.+40     	; 0x2cc <_Z10linefollowv+0x54>
     2a4:	04 c0       	rjmp	.+8      	; 0x2ae <_Z10linefollowv+0x36>
     2a6:	b5 99       	sbic	0x16, 5	; 22
     2a8:	13 c0       	rjmp	.+38     	; 0x2d0 <_Z10linefollowv+0x58>
     2aa:	b6 99       	sbic	0x16, 6	; 22
     2ac:	11 c0       	rjmp	.+34     	; 0x2d0 <_Z10linefollowv+0x58>
     2ae:	80 e1       	ldi	r24, 0x10	; 16
     2b0:	05 c0       	rjmp	.+10     	; 0x2bc <_Z10linefollowv+0x44>
     2b2:	b5 99       	sbic	0x16, 5	; 22
     2b4:	0f c0       	rjmp	.+30     	; 0x2d4 <_Z10linefollowv+0x5c>
     2b6:	b6 99       	sbic	0x16, 6	; 22
     2b8:	0d c0       	rjmp	.+26     	; 0x2d4 <_Z10linefollowv+0x5c>
     2ba:	81 e0       	ldi	r24, 0x01	; 1
     2bc:	85 bb       	out	0x15, r24	; 21
     2be:	08 95       	ret
     2c0:	b4 9b       	sbis	0x16, 4	; 22
     2c2:	e2 cf       	rjmp	.-60     	; 0x288 <_Z10linefollowv+0x10>
     2c4:	b4 9b       	sbis	0x16, 4	; 22
     2c6:	e5 cf       	rjmp	.-54     	; 0x292 <_Z10linefollowv+0x1a>
     2c8:	b4 99       	sbic	0x16, 4	; 22
     2ca:	e8 cf       	rjmp	.-48     	; 0x29c <_Z10linefollowv+0x24>
     2cc:	b4 99       	sbic	0x16, 4	; 22
     2ce:	eb cf       	rjmp	.-42     	; 0x2a6 <_Z10linefollowv+0x2e>
     2d0:	b4 9b       	sbis	0x16, 4	; 22
     2d2:	ef cf       	rjmp	.-34     	; 0x2b2 <_Z10linefollowv+0x3a>
     2d4:	08 95       	ret

000002d6 <_Z18linefollowbackwardv>:
     2d6:	b4 9b       	sbis	0x16, 4	; 22
     2d8:	44 c0       	rjmp	.+136    	; 0x362 <_Z18linefollowbackwardv+0x8c>
     2da:	b5 9b       	sbis	0x16, 5	; 22
     2dc:	42 c0       	rjmp	.+132    	; 0x362 <_Z18linefollowbackwardv+0x8c>
     2de:	b6 99       	sbic	0x16, 6	; 22
     2e0:	3d c0       	rjmp	.+122    	; 0x35c <_Z18linefollowbackwardv+0x86>
     2e2:	3f c0       	rjmp	.+126    	; 0x362 <_Z18linefollowbackwardv+0x8c>
     2e4:	b5 9b       	sbis	0x16, 5	; 22
     2e6:	3f c0       	rjmp	.+126    	; 0x366 <_Z18linefollowbackwardv+0x90>
     2e8:	b6 9b       	sbis	0x16, 6	; 22
     2ea:	3d c0       	rjmp	.+122    	; 0x366 <_Z18linefollowbackwardv+0x90>
     2ec:	81 e0       	ldi	r24, 0x01	; 1
     2ee:	37 c0       	rjmp	.+110    	; 0x35e <_Z18linefollowbackwardv+0x88>
     2f0:	b5 99       	sbic	0x16, 5	; 22
     2f2:	3b c0       	rjmp	.+118    	; 0x36a <_Z18linefollowbackwardv+0x94>
     2f4:	b6 9b       	sbis	0x16, 6	; 22
     2f6:	39 c0       	rjmp	.+114    	; 0x36a <_Z18linefollowbackwardv+0x94>
     2f8:	80 e1       	ldi	r24, 0x10	; 16
     2fa:	b4 9b       	sbis	0x16, 4	; 22
     2fc:	04 c0       	rjmp	.+8      	; 0x306 <_Z18linefollowbackwardv+0x30>
     2fe:	b5 9b       	sbis	0x16, 5	; 22
     300:	02 c0       	rjmp	.+4      	; 0x306 <_Z18linefollowbackwardv+0x30>
     302:	b6 99       	sbic	0x16, 6	; 22
     304:	38 c0       	rjmp	.+112    	; 0x376 <_Z18linefollowbackwardv+0xa0>
     306:	85 bb       	out	0x15, r24	; 21
     308:	2f ef       	ldi	r18, 0xFF	; 255
     30a:	39 ef       	ldi	r19, 0xF9	; 249
     30c:	40 e0       	ldi	r20, 0x00	; 0
     30e:	21 50       	subi	r18, 0x01	; 1
     310:	30 40       	sbci	r19, 0x00	; 0
     312:	40 40       	sbci	r20, 0x00	; 0
     314:	e1 f7       	brne	.-8      	; 0x30e <_Z18linefollowbackwardv+0x38>
     316:	00 c0       	rjmp	.+0      	; 0x318 <_Z18linefollowbackwardv+0x42>
     318:	00 00       	nop
     31a:	ef cf       	rjmp	.-34     	; 0x2fa <_Z18linefollowbackwardv+0x24>
     31c:	b5 9b       	sbis	0x16, 5	; 22
     31e:	27 c0       	rjmp	.+78     	; 0x36e <_Z18linefollowbackwardv+0x98>
     320:	b6 99       	sbic	0x16, 6	; 22
     322:	25 c0       	rjmp	.+74     	; 0x36e <_Z18linefollowbackwardv+0x98>
     324:	80 e1       	ldi	r24, 0x10	; 16
     326:	1b c0       	rjmp	.+54     	; 0x35e <_Z18linefollowbackwardv+0x88>
     328:	b5 99       	sbic	0x16, 5	; 22
     32a:	23 c0       	rjmp	.+70     	; 0x372 <_Z18linefollowbackwardv+0x9c>
     32c:	b6 99       	sbic	0x16, 6	; 22
     32e:	21 c0       	rjmp	.+66     	; 0x372 <_Z18linefollowbackwardv+0x9c>
     330:	81 e0       	ldi	r24, 0x01	; 1
     332:	b4 9b       	sbis	0x16, 4	; 22
     334:	04 c0       	rjmp	.+8      	; 0x33e <_Z18linefollowbackwardv+0x68>
     336:	b5 9b       	sbis	0x16, 5	; 22
     338:	02 c0       	rjmp	.+4      	; 0x33e <_Z18linefollowbackwardv+0x68>
     33a:	b6 99       	sbic	0x16, 6	; 22
     33c:	1c c0       	rjmp	.+56     	; 0x376 <_Z18linefollowbackwardv+0xa0>
     33e:	85 bb       	out	0x15, r24	; 21
     340:	2f ef       	ldi	r18, 0xFF	; 255
     342:	39 ef       	ldi	r19, 0xF9	; 249
     344:	40 e0       	ldi	r20, 0x00	; 0
     346:	21 50       	subi	r18, 0x01	; 1
     348:	30 40       	sbci	r19, 0x00	; 0
     34a:	40 40       	sbci	r20, 0x00	; 0
     34c:	e1 f7       	brne	.-8      	; 0x346 <_Z18linefollowbackwardv+0x70>
     34e:	00 c0       	rjmp	.+0      	; 0x350 <_Z18linefollowbackwardv+0x7a>
     350:	00 00       	nop
     352:	ef cf       	rjmp	.-34     	; 0x332 <_Z18linefollowbackwardv+0x5c>
     354:	b5 99       	sbic	0x16, 5	; 22
     356:	0f c0       	rjmp	.+30     	; 0x376 <_Z18linefollowbackwardv+0xa0>
     358:	b6 99       	sbic	0x16, 6	; 22
     35a:	0d c0       	rjmp	.+26     	; 0x376 <_Z18linefollowbackwardv+0xa0>
     35c:	8a e0       	ldi	r24, 0x0A	; 10
     35e:	85 bb       	out	0x15, r24	; 21
     360:	08 95       	ret
     362:	b4 9b       	sbis	0x16, 4	; 22
     364:	bf cf       	rjmp	.-130    	; 0x2e4 <_Z18linefollowbackwardv+0xe>
     366:	b4 9b       	sbis	0x16, 4	; 22
     368:	c3 cf       	rjmp	.-122    	; 0x2f0 <_Z18linefollowbackwardv+0x1a>
     36a:	b4 99       	sbic	0x16, 4	; 22
     36c:	d7 cf       	rjmp	.-82     	; 0x31c <_Z18linefollowbackwardv+0x46>
     36e:	b4 99       	sbic	0x16, 4	; 22
     370:	db cf       	rjmp	.-74     	; 0x328 <_Z18linefollowbackwardv+0x52>
     372:	b4 9b       	sbis	0x16, 4	; 22
     374:	ef cf       	rjmp	.-34     	; 0x354 <_Z18linefollowbackwardv+0x7e>
     376:	08 95       	ret

00000378 <_Z9openFrontv>:
     378:	8a e0       	ldi	r24, 0x0A	; 10
     37a:	90 e0       	ldi	r25, 0x00	; 0
     37c:	90 93 41 05 	sts	0x0541, r25
     380:	80 93 40 05 	sts	0x0540, r24
     384:	15 ba       	out	0x15, r1	; 21
     386:	80 e4       	ldi	r24, 0x40	; 64
     388:	8b bb       	out	0x1b, r24	; 27
     38a:	8f ef       	ldi	r24, 0xFF	; 255
     38c:	93 ed       	ldi	r25, 0xD3	; 211
     38e:	a0 e3       	ldi	r26, 0x30	; 48
     390:	81 50       	subi	r24, 0x01	; 1
     392:	90 40       	sbci	r25, 0x00	; 0
     394:	a0 40       	sbci	r26, 0x00	; 0
     396:	e1 f7       	brne	.-8      	; 0x390 <_Z9openFrontv+0x18>
     398:	00 c0       	rjmp	.+0      	; 0x39a <_Z9openFrontv+0x22>
     39a:	00 00       	nop
     39c:	1b ba       	out	0x1b, r1	; 27
     39e:	08 95       	ret

000003a0 <_Z10closeFrontv>:
     3a0:	15 ba       	out	0x15, r1	; 21
     3a2:	80 e8       	ldi	r24, 0x80	; 128
     3a4:	8b bb       	out	0x1b, r24	; 27
     3a6:	8f ef       	ldi	r24, 0xFF	; 255
     3a8:	93 ed       	ldi	r25, 0xD3	; 211
     3aa:	a0 e3       	ldi	r26, 0x30	; 48
     3ac:	81 50       	subi	r24, 0x01	; 1
     3ae:	90 40       	sbci	r25, 0x00	; 0
     3b0:	a0 40       	sbci	r26, 0x00	; 0
     3b2:	e1 f7       	brne	.-8      	; 0x3ac <_Z10closeFrontv+0xc>
     3b4:	00 c0       	rjmp	.+0      	; 0x3b6 <_Z10closeFrontv+0x16>
     3b6:	00 00       	nop
     3b8:	83 e0       	ldi	r24, 0x03	; 3
     3ba:	90 e0       	ldi	r25, 0x00	; 0
     3bc:	90 93 41 05 	sts	0x0541, r25
     3c0:	80 93 40 05 	sts	0x0540, r24
     3c4:	08 95       	ret

000003c6 <_Z12nodeLeftTurnv>:
     3c6:	83 e0       	ldi	r24, 0x03	; 3
     3c8:	90 e0       	ldi	r25, 0x00	; 0
     3ca:	90 93 45 05 	sts	0x0545, r25
     3ce:	80 93 44 05 	sts	0x0544, r24
     3d2:	8c e0       	ldi	r24, 0x0C	; 12
     3d4:	90 e0       	ldi	r25, 0x00	; 0
     3d6:	90 93 43 05 	sts	0x0543, r25
     3da:	80 93 42 05 	sts	0x0542, r24
     3de:	80 91 31 05 	lds	r24, 0x0531
     3e2:	88 23       	and	r24, r24
     3e4:	61 f0       	breq	.+24     	; 0x3fe <_Z12nodeLeftTurnv+0x38>
     3e6:	86 e0       	ldi	r24, 0x06	; 6
     3e8:	90 e0       	ldi	r25, 0x00	; 0
     3ea:	90 93 45 05 	sts	0x0545, r25
     3ee:	80 93 44 05 	sts	0x0544, r24
     3f2:	82 e1       	ldi	r24, 0x12	; 18
     3f4:	90 e0       	ldi	r25, 0x00	; 0
     3f6:	90 93 43 05 	sts	0x0543, r25
     3fa:	80 93 42 05 	sts	0x0542, r24
     3fe:	82 e1       	ldi	r24, 0x12	; 18
     400:	85 bb       	out	0x15, r24	; 21
     402:	b3 99       	sbic	0x16, 3	; 22
     404:	15 c0       	rjmp	.+42     	; 0x430 <_Z12nodeLeftTurnv+0x6a>
     406:	b7 99       	sbic	0x16, 7	; 22
     408:	13 c0       	rjmp	.+38     	; 0x430 <_Z12nodeLeftTurnv+0x6a>
     40a:	b4 9b       	sbis	0x16, 4	; 22
     40c:	11 c0       	rjmp	.+34     	; 0x430 <_Z12nodeLeftTurnv+0x6a>
     40e:	b6 9b       	sbis	0x16, 6	; 22
     410:	0f c0       	rjmp	.+30     	; 0x430 <_Z12nodeLeftTurnv+0x6a>
     412:	b5 9b       	sbis	0x16, 5	; 22
     414:	0d c0       	rjmp	.+26     	; 0x430 <_Z12nodeLeftTurnv+0x6a>
     416:	8f e0       	ldi	r24, 0x0F	; 15
     418:	90 e0       	ldi	r25, 0x00	; 0
     41a:	90 93 45 05 	sts	0x0545, r25
     41e:	80 93 44 05 	sts	0x0544, r24
     422:	82 e1       	ldi	r24, 0x12	; 18
     424:	90 e0       	ldi	r25, 0x00	; 0
     426:	90 93 43 05 	sts	0x0543, r25
     42a:	80 93 42 05 	sts	0x0542, r24
     42e:	08 95       	ret
     430:	8f e7       	ldi	r24, 0x7F	; 127
     432:	98 e3       	ldi	r25, 0x38	; 56
     434:	a1 e0       	ldi	r26, 0x01	; 1
     436:	81 50       	subi	r24, 0x01	; 1
     438:	90 40       	sbci	r25, 0x00	; 0
     43a:	a0 40       	sbci	r26, 0x00	; 0
     43c:	e1 f7       	brne	.-8      	; 0x436 <_Z12nodeLeftTurnv+0x70>
     43e:	00 c0       	rjmp	.+0      	; 0x440 <_Z12nodeLeftTurnv+0x7a>
     440:	00 00       	nop
     442:	df cf       	rjmp	.-66     	; 0x402 <_Z12nodeLeftTurnv+0x3c>

00000444 <_Z13nodeRightTurnv>:
     444:	8d e0       	ldi	r24, 0x0D	; 13
     446:	90 e0       	ldi	r25, 0x00	; 0
     448:	90 93 45 05 	sts	0x0545, r25
     44c:	80 93 44 05 	sts	0x0544, r24
     450:	85 e0       	ldi	r24, 0x05	; 5
     452:	90 e0       	ldi	r25, 0x00	; 0
     454:	90 93 43 05 	sts	0x0543, r25
     458:	80 93 42 05 	sts	0x0542, r24
     45c:	80 91 31 05 	lds	r24, 0x0531
     460:	88 23       	and	r24, r24
     462:	61 f0       	breq	.+24     	; 0x47c <_Z13nodeRightTurnv+0x38>
     464:	82 e1       	ldi	r24, 0x12	; 18
     466:	90 e0       	ldi	r25, 0x00	; 0
     468:	90 93 45 05 	sts	0x0545, r25
     46c:	80 93 44 05 	sts	0x0544, r24
     470:	87 e0       	ldi	r24, 0x07	; 7
     472:	90 e0       	ldi	r25, 0x00	; 0
     474:	90 93 43 05 	sts	0x0543, r25
     478:	80 93 42 05 	sts	0x0542, r24
     47c:	89 e0       	ldi	r24, 0x09	; 9
     47e:	85 bb       	out	0x15, r24	; 21
     480:	b3 99       	sbic	0x16, 3	; 22
     482:	15 c0       	rjmp	.+42     	; 0x4ae <_Z13nodeRightTurnv+0x6a>
     484:	b7 99       	sbic	0x16, 7	; 22
     486:	13 c0       	rjmp	.+38     	; 0x4ae <_Z13nodeRightTurnv+0x6a>
     488:	b4 9b       	sbis	0x16, 4	; 22
     48a:	11 c0       	rjmp	.+34     	; 0x4ae <_Z13nodeRightTurnv+0x6a>
     48c:	b6 9b       	sbis	0x16, 6	; 22
     48e:	0f c0       	rjmp	.+30     	; 0x4ae <_Z13nodeRightTurnv+0x6a>
     490:	b5 9b       	sbis	0x16, 5	; 22
     492:	0d c0       	rjmp	.+26     	; 0x4ae <_Z13nodeRightTurnv+0x6a>
     494:	8f e0       	ldi	r24, 0x0F	; 15
     496:	90 e0       	ldi	r25, 0x00	; 0
     498:	90 93 45 05 	sts	0x0545, r25
     49c:	80 93 44 05 	sts	0x0544, r24
     4a0:	82 e1       	ldi	r24, 0x12	; 18
     4a2:	90 e0       	ldi	r25, 0x00	; 0
     4a4:	90 93 43 05 	sts	0x0543, r25
     4a8:	80 93 42 05 	sts	0x0542, r24
     4ac:	08 95       	ret
     4ae:	8f e7       	ldi	r24, 0x7F	; 127
     4b0:	98 e3       	ldi	r25, 0x38	; 56
     4b2:	a1 e0       	ldi	r26, 0x01	; 1
     4b4:	81 50       	subi	r24, 0x01	; 1
     4b6:	90 40       	sbci	r25, 0x00	; 0
     4b8:	a0 40       	sbci	r26, 0x00	; 0
     4ba:	e1 f7       	brne	.-8      	; 0x4b4 <_Z13nodeRightTurnv+0x70>
     4bc:	00 c0       	rjmp	.+0      	; 0x4be <_Z13nodeRightTurnv+0x7a>
     4be:	00 00       	nop
     4c0:	df cf       	rjmp	.-66     	; 0x480 <_Z13nodeRightTurnv+0x3c>

000004c2 <_Z12nodeStraightv>:
     4c2:	85 e0       	ldi	r24, 0x05	; 5
     4c4:	90 e0       	ldi	r25, 0x00	; 0
     4c6:	90 93 45 05 	sts	0x0545, r25
     4ca:	80 93 44 05 	sts	0x0544, r24
     4ce:	86 e0       	ldi	r24, 0x06	; 6
     4d0:	90 e0       	ldi	r25, 0x00	; 0
     4d2:	90 93 43 05 	sts	0x0543, r25
     4d6:	80 93 42 05 	sts	0x0542, r24
     4da:	80 91 31 05 	lds	r24, 0x0531
     4de:	88 23       	and	r24, r24
     4e0:	61 f0       	breq	.+24     	; 0x4fa <_Z12nodeStraightv+0x38>
     4e2:	8a e0       	ldi	r24, 0x0A	; 10
     4e4:	90 e0       	ldi	r25, 0x00	; 0
     4e6:	90 93 45 05 	sts	0x0545, r25
     4ea:	80 93 44 05 	sts	0x0544, r24
     4ee:	8c e0       	ldi	r24, 0x0C	; 12
     4f0:	90 e0       	ldi	r25, 0x00	; 0
     4f2:	90 93 43 05 	sts	0x0543, r25
     4f6:	80 93 42 05 	sts	0x0542, r24
     4fa:	81 e1       	ldi	r24, 0x11	; 17
     4fc:	85 bb       	out	0x15, r24	; 21
     4fe:	b3 9b       	sbis	0x16, 3	; 22
     500:	02 c0       	rjmp	.+4      	; 0x506 <_Z12nodeStraightv+0x44>
     502:	b7 99       	sbic	0x16, 7	; 22
     504:	1c c0       	rjmp	.+56     	; 0x53e <_Z12nodeStraightv+0x7c>
     506:	b4 9b       	sbis	0x16, 4	; 22
     508:	1a c0       	rjmp	.+52     	; 0x53e <_Z12nodeStraightv+0x7c>
     50a:	b6 9b       	sbis	0x16, 6	; 22
     50c:	18 c0       	rjmp	.+48     	; 0x53e <_Z12nodeStraightv+0x7c>
     50e:	b5 99       	sbic	0x16, 5	; 22
     510:	09 c0       	rjmp	.+18     	; 0x524 <_Z12nodeStraightv+0x62>
     512:	15 c0       	rjmp	.+42     	; 0x53e <_Z12nodeStraightv+0x7c>
     514:	b7 99       	sbic	0x16, 7	; 22
     516:	15 c0       	rjmp	.+42     	; 0x542 <_Z12nodeStraightv+0x80>
     518:	b4 99       	sbic	0x16, 4	; 22
     51a:	13 c0       	rjmp	.+38     	; 0x542 <_Z12nodeStraightv+0x80>
     51c:	b6 99       	sbic	0x16, 6	; 22
     51e:	11 c0       	rjmp	.+34     	; 0x542 <_Z12nodeStraightv+0x80>
     520:	b5 99       	sbic	0x16, 5	; 22
     522:	0f c0       	rjmp	.+30     	; 0x542 <_Z12nodeStraightv+0x80>
     524:	8f e0       	ldi	r24, 0x0F	; 15
     526:	90 e0       	ldi	r25, 0x00	; 0
     528:	90 93 45 05 	sts	0x0545, r25
     52c:	80 93 44 05 	sts	0x0544, r24
     530:	82 e1       	ldi	r24, 0x12	; 18
     532:	90 e0       	ldi	r25, 0x00	; 0
     534:	90 93 43 05 	sts	0x0543, r25
     538:	80 93 42 05 	sts	0x0542, r24
     53c:	08 95       	ret
     53e:	b3 9b       	sbis	0x16, 3	; 22
     540:	e9 cf       	rjmp	.-46     	; 0x514 <_Z12nodeStraightv+0x52>
     542:	8f e7       	ldi	r24, 0x7F	; 127
     544:	98 e3       	ldi	r25, 0x38	; 56
     546:	a1 e0       	ldi	r26, 0x01	; 1
     548:	81 50       	subi	r24, 0x01	; 1
     54a:	90 40       	sbci	r25, 0x00	; 0
     54c:	a0 40       	sbci	r26, 0x00	; 0
     54e:	e1 f7       	brne	.-8      	; 0x548 <_Z12nodeStraightv+0x86>
     550:	00 c0       	rjmp	.+0      	; 0x552 <_Z12nodeStraightv+0x90>
     552:	00 00       	nop
     554:	d4 cf       	rjmp	.-88     	; 0x4fe <_Z12nodeStraightv+0x3c>

00000556 <_Z9nodeUTurnv>:
     556:	8a e0       	ldi	r24, 0x0A	; 10
     558:	90 e0       	ldi	r25, 0x00	; 0
     55a:	90 93 45 05 	sts	0x0545, r25
     55e:	80 93 44 05 	sts	0x0544, r24
     562:	8c e0       	ldi	r24, 0x0C	; 12
     564:	90 e0       	ldi	r25, 0x00	; 0
     566:	90 93 43 05 	sts	0x0543, r25
     56a:	80 93 42 05 	sts	0x0542, r24
     56e:	80 91 31 05 	lds	r24, 0x0531
     572:	88 23       	and	r24, r24
     574:	61 f0       	breq	.+24     	; 0x58e <_Z9nodeUTurnv+0x38>
     576:	8f e0       	ldi	r24, 0x0F	; 15
     578:	90 e0       	ldi	r25, 0x00	; 0
     57a:	90 93 45 05 	sts	0x0545, r25
     57e:	80 93 44 05 	sts	0x0544, r24
     582:	81 e1       	ldi	r24, 0x11	; 17
     584:	90 e0       	ldi	r25, 0x00	; 0
     586:	90 93 43 05 	sts	0x0543, r25
     58a:	80 93 42 05 	sts	0x0542, r24
     58e:	89 e0       	ldi	r24, 0x09	; 9
     590:	85 bb       	out	0x15, r24	; 21
     592:	b3 99       	sbic	0x16, 3	; 22
     594:	15 c0       	rjmp	.+42     	; 0x5c0 <_Z9nodeUTurnv+0x6a>
     596:	b7 99       	sbic	0x16, 7	; 22
     598:	13 c0       	rjmp	.+38     	; 0x5c0 <_Z9nodeUTurnv+0x6a>
     59a:	b4 9b       	sbis	0x16, 4	; 22
     59c:	11 c0       	rjmp	.+34     	; 0x5c0 <_Z9nodeUTurnv+0x6a>
     59e:	b6 9b       	sbis	0x16, 6	; 22
     5a0:	0f c0       	rjmp	.+30     	; 0x5c0 <_Z9nodeUTurnv+0x6a>
     5a2:	b5 9b       	sbis	0x16, 5	; 22
     5a4:	0d c0       	rjmp	.+26     	; 0x5c0 <_Z9nodeUTurnv+0x6a>
     5a6:	8f e0       	ldi	r24, 0x0F	; 15
     5a8:	90 e0       	ldi	r25, 0x00	; 0
     5aa:	90 93 45 05 	sts	0x0545, r25
     5ae:	80 93 44 05 	sts	0x0544, r24
     5b2:	82 e1       	ldi	r24, 0x12	; 18
     5b4:	90 e0       	ldi	r25, 0x00	; 0
     5b6:	90 93 43 05 	sts	0x0543, r25
     5ba:	80 93 42 05 	sts	0x0542, r24
     5be:	08 95       	ret
     5c0:	8f ef       	ldi	r24, 0xFF	; 255
     5c2:	99 ef       	ldi	r25, 0xF9	; 249
     5c4:	a0 e0       	ldi	r26, 0x00	; 0
     5c6:	81 50       	subi	r24, 0x01	; 1
     5c8:	90 40       	sbci	r25, 0x00	; 0
     5ca:	a0 40       	sbci	r26, 0x00	; 0
     5cc:	e1 f7       	brne	.-8      	; 0x5c6 <_Z9nodeUTurnv+0x70>
     5ce:	00 c0       	rjmp	.+0      	; 0x5d0 <_Z9nodeUTurnv+0x7a>
     5d0:	00 00       	nop
     5d2:	df cf       	rjmp	.-66     	; 0x592 <_Z9nodeUTurnv+0x3c>

000005d4 <_Z5align9Direction>:
     5d4:	cf 93       	push	r28
     5d6:	c8 2f       	mov	r28, r24
     5d8:	81 30       	cpi	r24, 0x01	; 1
     5da:	81 f0       	breq	.+32     	; 0x5fc <_Z5align9Direction+0x28>
     5dc:	81 30       	cpi	r24, 0x01	; 1
     5de:	58 f0       	brcs	.+22     	; 0x5f6 <_Z5align9Direction+0x22>
     5e0:	82 30       	cpi	r24, 0x02	; 2
     5e2:	19 f0       	breq	.+6      	; 0x5ea <_Z5align9Direction+0x16>
     5e4:	83 30       	cpi	r24, 0x03	; 3
     5e6:	61 f4       	brne	.+24     	; 0x600 <_Z5align9Direction+0x2c>
     5e8:	03 c0       	rjmp	.+6      	; 0x5f0 <_Z5align9Direction+0x1c>
     5ea:	24 e0       	ldi	r18, 0x04	; 4
     5ec:	30 e0       	ldi	r19, 0x00	; 0
     5ee:	08 c0       	rjmp	.+16     	; 0x600 <_Z5align9Direction+0x2c>
     5f0:	22 e0       	ldi	r18, 0x02	; 2
     5f2:	30 e0       	ldi	r19, 0x00	; 0
     5f4:	05 c0       	rjmp	.+10     	; 0x600 <_Z5align9Direction+0x2c>
     5f6:	21 e0       	ldi	r18, 0x01	; 1
     5f8:	30 e0       	ldi	r19, 0x00	; 0
     5fa:	02 c0       	rjmp	.+4      	; 0x600 <_Z5align9Direction+0x2c>
     5fc:	23 e0       	ldi	r18, 0x03	; 3
     5fe:	30 e0       	ldi	r19, 0x00	; 0
     600:	80 91 48 05 	lds	r24, 0x0548
     604:	81 30       	cpi	r24, 0x01	; 1
     606:	81 f0       	breq	.+32     	; 0x628 <_Z5align9Direction+0x54>
     608:	81 30       	cpi	r24, 0x01	; 1
     60a:	58 f0       	brcs	.+22     	; 0x622 <_Z5align9Direction+0x4e>
     60c:	82 30       	cpi	r24, 0x02	; 2
     60e:	19 f0       	breq	.+6      	; 0x616 <_Z5align9Direction+0x42>
     610:	83 30       	cpi	r24, 0x03	; 3
     612:	61 f4       	brne	.+24     	; 0x62c <_Z5align9Direction+0x58>
     614:	03 c0       	rjmp	.+6      	; 0x61c <_Z5align9Direction+0x48>
     616:	24 50       	subi	r18, 0x04	; 4
     618:	30 40       	sbci	r19, 0x00	; 0
     61a:	08 c0       	rjmp	.+16     	; 0x62c <_Z5align9Direction+0x58>
     61c:	22 50       	subi	r18, 0x02	; 2
     61e:	30 40       	sbci	r19, 0x00	; 0
     620:	05 c0       	rjmp	.+10     	; 0x62c <_Z5align9Direction+0x58>
     622:	21 50       	subi	r18, 0x01	; 1
     624:	30 40       	sbci	r19, 0x00	; 0
     626:	02 c0       	rjmp	.+4      	; 0x62c <_Z5align9Direction+0x58>
     628:	23 50       	subi	r18, 0x03	; 3
     62a:	30 40       	sbci	r19, 0x00	; 0
     62c:	c9 01       	movw	r24, r18
     62e:	04 96       	adiw	r24, 0x04	; 4
     630:	64 e0       	ldi	r22, 0x04	; 4
     632:	70 e0       	ldi	r23, 0x00	; 0
     634:	0e 94 96 0b 	call	0x172c	; 0x172c <__divmodhi4>
     638:	81 30       	cpi	r24, 0x01	; 1
     63a:	91 05       	cpc	r25, r1
     63c:	b1 f0       	breq	.+44     	; 0x66a <_Z5align9Direction+0x96>
     63e:	82 30       	cpi	r24, 0x02	; 2
     640:	91 05       	cpc	r25, r1
     642:	1c f4       	brge	.+6      	; 0x64a <_Z5align9Direction+0x76>
     644:	00 97       	sbiw	r24, 0x00	; 0
     646:	41 f0       	breq	.+16     	; 0x658 <_Z5align9Direction+0x84>
     648:	12 c0       	rjmp	.+36     	; 0x66e <_Z5align9Direction+0x9a>
     64a:	82 30       	cpi	r24, 0x02	; 2
     64c:	91 05       	cpc	r25, r1
     64e:	39 f0       	breq	.+14     	; 0x65e <_Z5align9Direction+0x8a>
     650:	83 30       	cpi	r24, 0x03	; 3
     652:	91 05       	cpc	r25, r1
     654:	61 f4       	brne	.+24     	; 0x66e <_Z5align9Direction+0x9a>
     656:	06 c0       	rjmp	.+12     	; 0x664 <_Z5align9Direction+0x90>
     658:	0e 94 61 02 	call	0x4c2	; 0x4c2 <_Z12nodeStraightv>
     65c:	08 c0       	rjmp	.+16     	; 0x66e <_Z5align9Direction+0x9a>
     65e:	0e 94 ab 02 	call	0x556	; 0x556 <_Z9nodeUTurnv>
     662:	05 c0       	rjmp	.+10     	; 0x66e <_Z5align9Direction+0x9a>
     664:	0e 94 22 02 	call	0x444	; 0x444 <_Z13nodeRightTurnv>
     668:	02 c0       	rjmp	.+4      	; 0x66e <_Z5align9Direction+0x9a>
     66a:	0e 94 e3 01 	call	0x3c6	; 0x3c6 <_Z12nodeLeftTurnv>
     66e:	c0 93 48 05 	sts	0x0548, r28
     672:	cf 91       	pop	r28
     674:	08 95       	ret

00000676 <_Z5setupv>:
     676:	cf 93       	push	r28
     678:	c3 e0       	ldi	r28, 0x03	; 3
     67a:	c7 bb       	out	0x17, r28	; 23
     67c:	8f ef       	ldi	r24, 0xFF	; 255
     67e:	84 bb       	out	0x14, r24	; 20
     680:	15 ba       	out	0x15, r1	; 21
     682:	8c ef       	ldi	r24, 0xFC	; 252
     684:	88 bb       	out	0x18, r24	; 24
     686:	80 ef       	ldi	r24, 0xF0	; 240
     688:	8a bb       	out	0x1a, r24	; 26
     68a:	1b ba       	out	0x1b, r1	; 27
     68c:	83 b7       	in	r24, 0x33	; 51
     68e:	82 64       	ori	r24, 0x42	; 66
     690:	83 bf       	out	0x33, r24	; 51
     692:	85 b5       	in	r24, 0x25	; 37
     694:	85 64       	ori	r24, 0x45	; 69
     696:	85 bd       	out	0x25, r24	; 37
     698:	89 b7       	in	r24, 0x39	; 57
     69a:	81 64       	ori	r24, 0x41	; 65
     69c:	89 bf       	out	0x39, r24	; 57
     69e:	89 e0       	ldi	r24, 0x09	; 9
     6a0:	90 e0       	ldi	r25, 0x00	; 0
     6a2:	90 93 45 05 	sts	0x0545, r25
     6a6:	80 93 44 05 	sts	0x0544, r24
     6aa:	8c e0       	ldi	r24, 0x0C	; 12
     6ac:	90 e0       	ldi	r25, 0x00	; 0
     6ae:	90 93 43 05 	sts	0x0543, r25
     6b2:	80 93 42 05 	sts	0x0542, r24
     6b6:	8a e0       	ldi	r24, 0x0A	; 10
     6b8:	90 e0       	ldi	r25, 0x00	; 0
     6ba:	90 93 41 05 	sts	0x0541, r25
     6be:	80 93 40 05 	sts	0x0540, r24
     6c2:	0e 94 75 00 	call	0xea	; 0xea <_Z18initialiseBotStatev>
     6c6:	84 e0       	ldi	r24, 0x04	; 4
     6c8:	81 bb       	out	0x11, r24	; 17
     6ca:	82 bb       	out	0x12, r24	; 18
     6cc:	80 e4       	ldi	r24, 0x40	; 64
     6ce:	8b bf       	out	0x3b, r24	; 59
     6d0:	c5 bf       	out	0x35, r28	; 53
     6d2:	78 94       	sei
     6d4:	cf 91       	pop	r28
     6d6:	08 95       	ret

000006d8 <_Z13nextneighbourPA7_h5Point>:
     6d8:	0f 93       	push	r16
     6da:	1f 93       	push	r17
     6dc:	cf 93       	push	r28
     6de:	df 93       	push	r29
     6e0:	9c 01       	movw	r18, r24
     6e2:	ca 01       	movw	r24, r20
     6e4:	db 01       	movw	r26, r22
     6e6:	65 30       	cpi	r22, 0x05	; 5
     6e8:	71 05       	cpc	r23, r1
     6ea:	a4 f4       	brge	.+40     	; 0x714 <_Z13nextneighbourPA7_h5Point+0x3c>
     6ec:	eb 01       	movw	r28, r22
     6ee:	21 96       	adiw	r28, 0x01	; 1
     6f0:	fa 01       	movw	r30, r20
     6f2:	13 e0       	ldi	r17, 0x03	; 3
     6f4:	ee 0f       	add	r30, r30
     6f6:	ff 1f       	adc	r31, r31
     6f8:	1a 95       	dec	r17
     6fa:	e1 f7       	brne	.-8      	; 0x6f4 <_Z13nextneighbourPA7_h5Point+0x1c>
     6fc:	e4 1b       	sub	r30, r20
     6fe:	f5 0b       	sbc	r31, r21
     700:	e2 0f       	add	r30, r18
     702:	f3 1f       	adc	r31, r19
     704:	ec 0f       	add	r30, r28
     706:	fd 1f       	adc	r31, r29
     708:	e0 81       	ld	r30, Z
     70a:	e1 30       	cpi	r30, 0x01	; 1
     70c:	19 f4       	brne	.+6      	; 0x714 <_Z13nextneighbourPA7_h5Point+0x3c>
     70e:	8a 01       	movw	r16, r20
     710:	9e 01       	movw	r18, r28
     712:	48 c0       	rjmp	.+144    	; 0x7a4 <_Z13nextneighbourPA7_h5Point+0xcc>
     714:	84 30       	cpi	r24, 0x04	; 4
     716:	91 05       	cpc	r25, r1
     718:	a4 f4       	brge	.+40     	; 0x742 <_Z13nextneighbourPA7_h5Point+0x6a>
     71a:	ac 01       	movw	r20, r24
     71c:	4f 5f       	subi	r20, 0xFF	; 255
     71e:	5f 4f       	sbci	r21, 0xFF	; 255
     720:	fa 01       	movw	r30, r20
     722:	73 e0       	ldi	r23, 0x03	; 3
     724:	ee 0f       	add	r30, r30
     726:	ff 1f       	adc	r31, r31
     728:	7a 95       	dec	r23
     72a:	e1 f7       	brne	.-8      	; 0x724 <_Z13nextneighbourPA7_h5Point+0x4c>
     72c:	e4 1b       	sub	r30, r20
     72e:	f5 0b       	sbc	r31, r21
     730:	e2 0f       	add	r30, r18
     732:	f3 1f       	adc	r31, r19
     734:	ea 0f       	add	r30, r26
     736:	fb 1f       	adc	r31, r27
     738:	60 81       	ld	r22, Z
     73a:	61 30       	cpi	r22, 0x01	; 1
     73c:	11 f4       	brne	.+4      	; 0x742 <_Z13nextneighbourPA7_h5Point+0x6a>
     73e:	8a 01       	movw	r16, r20
     740:	2c c0       	rjmp	.+88     	; 0x79a <_Z13nextneighbourPA7_h5Point+0xc2>
     742:	1a 16       	cp	r1, r26
     744:	1b 06       	cpc	r1, r27
     746:	ac f4       	brge	.+42     	; 0x772 <_Z13nextneighbourPA7_h5Point+0x9a>
     748:	ad 01       	movw	r20, r26
     74a:	41 50       	subi	r20, 0x01	; 1
     74c:	50 40       	sbci	r21, 0x00	; 0
     74e:	fc 01       	movw	r30, r24
     750:	63 e0       	ldi	r22, 0x03	; 3
     752:	ee 0f       	add	r30, r30
     754:	ff 1f       	adc	r31, r31
     756:	6a 95       	dec	r22
     758:	e1 f7       	brne	.-8      	; 0x752 <_Z13nextneighbourPA7_h5Point+0x7a>
     75a:	e8 1b       	sub	r30, r24
     75c:	f9 0b       	sbc	r31, r25
     75e:	e2 0f       	add	r30, r18
     760:	f3 1f       	adc	r31, r19
     762:	e4 0f       	add	r30, r20
     764:	f5 1f       	adc	r31, r21
     766:	60 81       	ld	r22, Z
     768:	61 30       	cpi	r22, 0x01	; 1
     76a:	19 f4       	brne	.+6      	; 0x772 <_Z13nextneighbourPA7_h5Point+0x9a>
     76c:	8c 01       	movw	r16, r24
     76e:	9a 01       	movw	r18, r20
     770:	19 c0       	rjmp	.+50     	; 0x7a4 <_Z13nextneighbourPA7_h5Point+0xcc>
     772:	18 16       	cp	r1, r24
     774:	19 06       	cpc	r1, r25
     776:	9c f4       	brge	.+38     	; 0x79e <_Z13nextneighbourPA7_h5Point+0xc6>
     778:	01 97       	sbiw	r24, 0x01	; 1
     77a:	fc 01       	movw	r30, r24
     77c:	43 e0       	ldi	r20, 0x03	; 3
     77e:	ee 0f       	add	r30, r30
     780:	ff 1f       	adc	r31, r31
     782:	4a 95       	dec	r20
     784:	e1 f7       	brne	.-8      	; 0x77e <_Z13nextneighbourPA7_h5Point+0xa6>
     786:	e8 1b       	sub	r30, r24
     788:	f9 0b       	sbc	r31, r25
     78a:	e2 0f       	add	r30, r18
     78c:	f3 1f       	adc	r31, r19
     78e:	ea 0f       	add	r30, r26
     790:	fb 1f       	adc	r31, r27
     792:	20 81       	ld	r18, Z
     794:	21 30       	cpi	r18, 0x01	; 1
     796:	19 f4       	brne	.+6      	; 0x79e <_Z13nextneighbourPA7_h5Point+0xc6>
     798:	8c 01       	movw	r16, r24
     79a:	9d 01       	movw	r18, r26
     79c:	03 c0       	rjmp	.+6      	; 0x7a4 <_Z13nextneighbourPA7_h5Point+0xcc>
     79e:	0f ef       	ldi	r16, 0xFF	; 255
     7a0:	1f ef       	ldi	r17, 0xFF	; 255
     7a2:	98 01       	movw	r18, r16
     7a4:	b8 01       	movw	r22, r16
     7a6:	c9 01       	movw	r24, r18
     7a8:	df 91       	pop	r29
     7aa:	cf 91       	pop	r28
     7ac:	1f 91       	pop	r17
     7ae:	0f 91       	pop	r16
     7b0:	08 95       	ret

000007b2 <_Z35FloydWarshallWithPathReconstructionv>:
     7b2:	2f 92       	push	r2
     7b4:	3f 92       	push	r3
     7b6:	4f 92       	push	r4
     7b8:	5f 92       	push	r5
     7ba:	6f 92       	push	r6
     7bc:	7f 92       	push	r7
     7be:	8f 92       	push	r8
     7c0:	9f 92       	push	r9
     7c2:	af 92       	push	r10
     7c4:	bf 92       	push	r11
     7c6:	cf 92       	push	r12
     7c8:	df 92       	push	r13
     7ca:	ef 92       	push	r14
     7cc:	ff 92       	push	r15
     7ce:	0f 93       	push	r16
     7d0:	1f 93       	push	r17
     7d2:	cf 93       	push	r28
     7d4:	df 93       	push	r29
     7d6:	cd b7       	in	r28, 0x3d	; 61
     7d8:	de b7       	in	r29, 0x3e	; 62
     7da:	c2 50       	subi	r28, 0x02	; 2
     7dc:	d5 40       	sbci	r29, 0x05	; 5
     7de:	0f b6       	in	r0, 0x3f	; 63
     7e0:	f8 94       	cli
     7e2:	de bf       	out	0x3e, r29	; 62
     7e4:	0f be       	out	0x3f, r0	; 63
     7e6:	cd bf       	out	0x3d, r28	; 61
     7e8:	ae 01       	movw	r20, r28
     7ea:	4c 5d       	subi	r20, 0xDC	; 220
     7ec:	5f 4f       	sbci	r21, 0xFF	; 255
     7ee:	c1 51       	subi	r28, 0x11	; 17
     7f0:	db 4f       	sbci	r29, 0xFB	; 251
     7f2:	59 83       	std	Y+1, r21	; 0x01
     7f4:	48 83       	st	Y, r20
     7f6:	cf 5e       	subi	r28, 0xEF	; 239
     7f8:	d4 40       	sbci	r29, 0x04	; 4
     7fa:	ae 01       	movw	r20, r28
     7fc:	43 51       	subi	r20, 0x13	; 19
     7fe:	5b 4f       	sbci	r21, 0xFB	; 251
     800:	c3 51       	subi	r28, 0x13	; 19
     802:	db 4f       	sbci	r29, 0xFB	; 251
     804:	59 83       	std	Y+1, r21	; 0x01
     806:	48 83       	st	Y, r20
     808:	cd 5e       	subi	r28, 0xED	; 237
     80a:	d4 40       	sbci	r29, 0x04	; 4
     80c:	9e 01       	movw	r18, r28
     80e:	2c 5d       	subi	r18, 0xDC	; 220
     810:	3f 4f       	sbci	r19, 0xFF	; 255
     812:	74 e6       	ldi	r23, 0x64	; 100
     814:	44 e6       	ldi	r20, 0x64	; 100
     816:	50 e0       	ldi	r21, 0x00	; 0
     818:	42 1b       	sub	r20, r18
     81a:	53 0b       	sbc	r21, r19
     81c:	cf 50       	subi	r28, 0x0F	; 15
     81e:	db 4f       	sbci	r29, 0xFB	; 251
     820:	59 83       	std	Y+1, r21	; 0x01
     822:	48 83       	st	Y, r20
     824:	c1 5f       	subi	r28, 0xF1	; 241
     826:	d4 40       	sbci	r29, 0x04	; 4
     828:	68 e7       	ldi	r22, 0x78	; 120
     82a:	17 c0       	rjmp	.+46     	; 0x85a <_Z35FloydWarshallWithPathReconstructionv+0xa8>
     82c:	f9 01       	movw	r30, r18
     82e:	e8 0f       	add	r30, r24
     830:	f9 1f       	adc	r31, r25
     832:	70 83       	st	Z, r23
     834:	fa 01       	movw	r30, r20
     836:	e8 0f       	add	r30, r24
     838:	f9 1f       	adc	r31, r25
     83a:	60 83       	st	Z, r22
     83c:	01 96       	adiw	r24, 0x01	; 1
     83e:	83 32       	cpi	r24, 0x23	; 35
     840:	91 05       	cpc	r25, r1
     842:	a1 f7       	brne	.-24     	; 0x82c <_Z35FloydWarshallWithPathReconstructionv+0x7a>
     844:	2d 5d       	subi	r18, 0xDD	; 221
     846:	3f 4f       	sbci	r19, 0xFF	; 255
     848:	c3 51       	subi	r28, 0x13	; 19
     84a:	db 4f       	sbci	r29, 0xFB	; 251
     84c:	48 81       	ld	r20, Y
     84e:	59 81       	ldd	r21, Y+1	; 0x01
     850:	cd 5e       	subi	r28, 0xED	; 237
     852:	d4 40       	sbci	r29, 0x04	; 4
     854:	24 17       	cp	r18, r20
     856:	35 07       	cpc	r19, r21
     858:	09 f1       	breq	.+66     	; 0x89c <__stack+0x3d>
     85a:	80 e0       	ldi	r24, 0x00	; 0
     85c:	90 e0       	ldi	r25, 0x00	; 0
     85e:	cf 50       	subi	r28, 0x0F	; 15
     860:	db 4f       	sbci	r29, 0xFB	; 251
     862:	48 81       	ld	r20, Y
     864:	59 81       	ldd	r21, Y+1	; 0x01
     866:	c1 5f       	subi	r28, 0xF1	; 241
     868:	d4 40       	sbci	r29, 0x04	; 4
     86a:	42 0f       	add	r20, r18
     86c:	53 1f       	adc	r21, r19
     86e:	de cf       	rjmp	.-68     	; 0x82c <_Z35FloydWarshallWithPathReconstructionv+0x7a>
     870:	44 30       	cpi	r20, 0x04	; 4
     872:	51 05       	cpc	r21, r1
     874:	41 f0       	breq	.+16     	; 0x886 <__stack+0x27>
     876:	fd 01       	movw	r30, r26
     878:	ee 5a       	subi	r30, 0xAE	; 174
     87a:	f0 40       	sbci	r31, 0x00	; 0
     87c:	20 83       	st	Z, r18
     87e:	fd 01       	movw	r30, r26
     880:	ec 58       	subi	r30, 0x8C	; 140
     882:	f0 40       	sbci	r31, 0x00	; 0
     884:	20 83       	st	Z, r18
     886:	01 97       	sbiw	r24, 0x01	; 1
     888:	09 f4       	brne	.+2      	; 0x88c <__stack+0x2d>
     88a:	de c1       	rjmp	.+956    	; 0xc48 <__stack+0x3e9>
     88c:	fd 01       	movw	r30, r26
     88e:	ea 5a       	subi	r30, 0xAA	; 170
     890:	f0 40       	sbci	r31, 0x00	; 0
     892:	20 83       	st	Z, r18
     894:	2c 93       	st	X, r18
     896:	ac 54       	subi	r26, 0x4C	; 76
     898:	bf 4f       	sbci	r27, 0xFF	; 255
     89a:	ea cf       	rjmp	.-44     	; 0x870 <__stack+0x11>
     89c:	40 e0       	ldi	r20, 0x00	; 0
     89e:	50 e0       	ldi	r21, 0x00	; 0
     8a0:	63 e2       	ldi	r22, 0x23	; 35
     8a2:	70 e0       	ldi	r23, 0x00	; 0
     8a4:	21 e0       	ldi	r18, 0x01	; 1
     8a6:	ca 01       	movw	r24, r20
     8a8:	05 96       	adiw	r24, 0x05	; 5
     8aa:	86 9f       	mul	r24, r22
     8ac:	d0 01       	movw	r26, r0
     8ae:	87 9f       	mul	r24, r23
     8b0:	b0 0d       	add	r27, r0
     8b2:	96 9f       	mul	r25, r22
     8b4:	b0 0d       	add	r27, r0
     8b6:	11 24       	eor	r1, r1
     8b8:	a4 0f       	add	r26, r20
     8ba:	b5 1f       	adc	r27, r21
     8bc:	84 e2       	ldi	r24, 0x24	; 36
     8be:	90 e0       	ldi	r25, 0x00	; 0
     8c0:	8c 0f       	add	r24, r28
     8c2:	9d 1f       	adc	r25, r29
     8c4:	a8 0f       	add	r26, r24
     8c6:	b9 1f       	adc	r27, r25
     8c8:	87 e0       	ldi	r24, 0x07	; 7
     8ca:	90 e0       	ldi	r25, 0x00	; 0
     8cc:	d1 cf       	rjmp	.-94     	; 0x870 <__stack+0x11>
     8ce:	84 01       	movw	r16, r8
     8d0:	0e 0d       	add	r16, r14
     8d2:	1f 1d       	adc	r17, r15
     8d4:	96 e0       	ldi	r25, 0x06	; 6
     8d6:	e9 16       	cp	r14, r25
     8d8:	f1 04       	cpc	r15, r1
     8da:	49 f4       	brne	.+18     	; 0x8ee <__stack+0x8f>
     8dc:	f4 01       	movw	r30, r8
     8de:	16 82       	std	Z+6, r1	; 0x06
     8e0:	f3 e0       	ldi	r31, 0x03	; 3
     8e2:	cf 16       	cp	r12, r31
     8e4:	d1 04       	cpc	r13, r1
     8e6:	e9 f4       	brne	.+58     	; 0x922 <__stack+0xc3>
     8e8:	41 e0       	ldi	r20, 0x01	; 1
     8ea:	4c 8f       	std	Y+28, r20	; 0x1c
     8ec:	1a c0       	rjmp	.+52     	; 0x922 <__stack+0xc3>
     8ee:	82 2f       	mov	r24, r18
     8f0:	8c 0d       	add	r24, r12
     8f2:	ce 5f       	subi	r28, 0xFE	; 254
     8f4:	da 4f       	sbci	r29, 0xFA	; 250
     8f6:	28 83       	st	Y, r18
     8f8:	c2 50       	subi	r28, 0x02	; 2
     8fa:	d5 40       	sbci	r29, 0x05	; 5
     8fc:	cf 5f       	subi	r28, 0xFF	; 255
     8fe:	da 4f       	sbci	r29, 0xFA	; 250
     900:	38 83       	st	Y, r19
     902:	c1 50       	subi	r28, 0x01	; 1
     904:	d5 40       	sbci	r29, 0x05	; 5
     906:	0e 94 6a 00 	call	0xd4	; 0xd4 <_Z11EEPROM_readh>
     90a:	f8 01       	movw	r30, r16
     90c:	80 83       	st	Z, r24
     90e:	cf 5f       	subi	r28, 0xFF	; 255
     910:	da 4f       	sbci	r29, 0xFA	; 250
     912:	38 81       	ld	r19, Y
     914:	c1 50       	subi	r28, 0x01	; 1
     916:	d5 40       	sbci	r29, 0x05	; 5
     918:	ce 5f       	subi	r28, 0xFE	; 254
     91a:	da 4f       	sbci	r29, 0xFA	; 250
     91c:	28 81       	ld	r18, Y
     91e:	c2 50       	subi	r28, 0x02	; 2
     920:	d5 40       	sbci	r29, 0x05	; 5
     922:	f8 01       	movw	r30, r16
     924:	80 81       	ld	r24, Z
     926:	88 23       	and	r24, r24
     928:	09 f0       	breq	.+2      	; 0x92c <__stack+0xcd>
     92a:	74 c0       	rjmp	.+232    	; 0xa14 <__stack+0x1b5>
     92c:	c5 50       	subi	r28, 0x05	; 5
     92e:	db 4f       	sbci	r29, 0xFB	; 251
     930:	88 81       	ld	r24, Y
     932:	99 81       	ldd	r25, Y+1	; 0x01
     934:	cb 5f       	subi	r28, 0xFB	; 251
     936:	d4 40       	sbci	r29, 0x04	; 4
     938:	a0 e0       	ldi	r26, 0x00	; 0
     93a:	b0 e0       	ldi	r27, 0x00	; 0
     93c:	a7 01       	movw	r20, r14
     93e:	41 50       	subi	r20, 0x01	; 1
     940:	50 40       	sbci	r21, 0x00	; 0
     942:	c9 50       	subi	r28, 0x09	; 9
     944:	db 4f       	sbci	r29, 0xFB	; 251
     946:	59 83       	std	Y+1, r21	; 0x01
     948:	48 83       	st	Y, r20
     94a:	c7 5f       	subi	r28, 0xF7	; 247
     94c:	d4 40       	sbci	r29, 0x04	; 4
     94e:	f5 01       	movw	r30, r10
     950:	e4 0d       	add	r30, r4
     952:	f5 1d       	adc	r31, r5
     954:	c7 50       	subi	r28, 0x07	; 7
     956:	db 4f       	sbci	r29, 0xFB	; 251
     958:	f9 83       	std	Y+1, r31	; 0x01
     95a:	e8 83       	st	Y, r30
     95c:	c9 5f       	subi	r28, 0xF9	; 249
     95e:	d4 40       	sbci	r29, 0x04	; 4
     960:	15 01       	movw	r2, r10
     962:	26 0c       	add	r2, r6
     964:	37 1c       	adc	r3, r7
     966:	4d ed       	ldi	r20, 0xDD	; 221
     968:	5f ef       	ldi	r21, 0xFF	; 255
     96a:	24 0e       	add	r2, r20
     96c:	35 1e       	adc	r3, r21
     96e:	c9 50       	subi	r28, 0x09	; 9
     970:	db 4f       	sbci	r29, 0xFB	; 251
     972:	48 81       	ld	r20, Y
     974:	59 81       	ldd	r21, Y+1	; 0x01
     976:	c7 5f       	subi	r28, 0xF7	; 247
     978:	d4 40       	sbci	r29, 0x04	; 4
     97a:	60 e0       	ldi	r22, 0x00	; 0
     97c:	70 e0       	ldi	r23, 0x00	; 0
     97e:	00 e0       	ldi	r16, 0x00	; 0
     980:	10 e0       	ldi	r17, 0x00	; 0
     982:	c7 50       	subi	r28, 0x07	; 7
     984:	db 4f       	sbci	r29, 0xFB	; 251
     986:	e8 81       	ld	r30, Y
     988:	f9 81       	ldd	r31, Y+1	; 0x01
     98a:	c9 5f       	subi	r28, 0xF9	; 249
     98c:	d4 40       	sbci	r29, 0x04	; 4
     98e:	e8 0f       	add	r30, r24
     990:	f9 1f       	adc	r31, r25
     992:	cd 50       	subi	r28, 0x0D	; 13
     994:	db 4f       	sbci	r29, 0xFB	; 251
     996:	f9 83       	std	Y+1, r31	; 0x01
     998:	e8 83       	st	Y, r30
     99a:	c3 5f       	subi	r28, 0xF3	; 243
     99c:	d4 40       	sbci	r29, 0x04	; 4
     99e:	f1 01       	movw	r30, r2
     9a0:	ea 0f       	add	r30, r26
     9a2:	fb 1f       	adc	r31, r27
     9a4:	cb 50       	subi	r28, 0x0B	; 11
     9a6:	db 4f       	sbci	r29, 0xFB	; 251
     9a8:	f9 83       	std	Y+1, r31	; 0x01
     9aa:	e8 83       	st	Y, r30
     9ac:	c5 5f       	subi	r28, 0xF5	; 245
     9ae:	d4 40       	sbci	r29, 0x04	; 4
     9b0:	ff ef       	ldi	r31, 0xFF	; 255
     9b2:	8f 3f       	cpi	r24, 0xFF	; 255
     9b4:	9f 07       	cpc	r25, r31
     9b6:	f9 f0       	breq	.+62     	; 0x9f6 <__stack+0x197>
     9b8:	ef ef       	ldi	r30, 0xFF	; 255
     9ba:	4f 3f       	cpi	r20, 0xFF	; 255
     9bc:	5e 07       	cpc	r21, r30
     9be:	d9 f0       	breq	.+54     	; 0x9f6 <__stack+0x197>
     9c0:	85 30       	cpi	r24, 0x05	; 5
     9c2:	91 05       	cpc	r25, r1
     9c4:	c1 f0       	breq	.+48     	; 0x9f6 <__stack+0x197>
     9c6:	47 30       	cpi	r20, 0x07	; 7
     9c8:	51 05       	cpc	r21, r1
     9ca:	a9 f0       	breq	.+42     	; 0x9f6 <__stack+0x197>
     9cc:	cd 50       	subi	r28, 0x0D	; 13
     9ce:	db 4f       	sbci	r29, 0xFB	; 251
     9d0:	e8 81       	ld	r30, Y
     9d2:	f9 81       	ldd	r31, Y+1	; 0x01
     9d4:	c3 5f       	subi	r28, 0xF3	; 243
     9d6:	d4 40       	sbci	r29, 0x04	; 4
     9d8:	e6 0f       	add	r30, r22
     9da:	f7 1f       	adc	r31, r23
     9dc:	35 97       	sbiw	r30, 0x05	; 5
     9de:	30 83       	st	Z, r19
     9e0:	cb 50       	subi	r28, 0x0B	; 11
     9e2:	db 4f       	sbci	r29, 0xFB	; 251
     9e4:	e8 81       	ld	r30, Y
     9e6:	f9 81       	ldd	r31, Y+1	; 0x01
     9e8:	c5 5f       	subi	r28, 0xF5	; 245
     9ea:	d4 40       	sbci	r29, 0x04	; 4
     9ec:	e0 0f       	add	r30, r16
     9ee:	f1 1f       	adc	r31, r17
     9f0:	ef 5a       	subi	r30, 0xAF	; 175
     9f2:	f0 40       	sbci	r31, 0x00	; 0
     9f4:	30 83       	st	Z, r19
     9f6:	4f 5f       	subi	r20, 0xFF	; 255
     9f8:	5f 4f       	sbci	r21, 0xFF	; 255
     9fa:	6b 5f       	subi	r22, 0xFB	; 251
     9fc:	7f 4f       	sbci	r23, 0xFF	; 255
     9fe:	01 55       	subi	r16, 0x51	; 81
     a00:	1f 4f       	sbci	r17, 0xFF	; 255
     a02:	6f 30       	cpi	r22, 0x0F	; 15
     a04:	71 05       	cpc	r23, r1
     a06:	a1 f6       	brne	.-88     	; 0x9b0 <__stack+0x151>
     a08:	01 96       	adiw	r24, 0x01	; 1
     a0a:	93 96       	adiw	r26, 0x23	; 35
     a0c:	a9 36       	cpi	r26, 0x69	; 105
     a0e:	b1 05       	cpc	r27, r1
     a10:	09 f0       	breq	.+2      	; 0xa14 <__stack+0x1b5>
     a12:	ad cf       	rjmp	.-166    	; 0x96e <__stack+0x10f>
     a14:	08 94       	sec
     a16:	e1 1c       	adc	r14, r1
     a18:	f1 1c       	adc	r15, r1
     a1a:	44 eb       	ldi	r20, 0xB4	; 180
     a1c:	50 e0       	ldi	r21, 0x00	; 0
     a1e:	a4 0e       	add	r10, r20
     a20:	b5 1e       	adc	r11, r21
     a22:	2b 5f       	subi	r18, 0xFB	; 251
     a24:	23 32       	cpi	r18, 0x23	; 35
     a26:	09 f0       	breq	.+2      	; 0xa2a <__stack+0x1cb>
     a28:	52 cf       	rjmp	.-348    	; 0x8ce <__stack+0x6f>
     a2a:	08 94       	sec
     a2c:	c1 1c       	adc	r12, r1
     a2e:	d1 1c       	adc	r13, r1
     a30:	87 e0       	ldi	r24, 0x07	; 7
     a32:	90 e0       	ldi	r25, 0x00	; 0
     a34:	88 0e       	add	r8, r24
     a36:	99 1e       	adc	r9, r25
     a38:	e3 e2       	ldi	r30, 0x23	; 35
     a3a:	f0 e0       	ldi	r31, 0x00	; 0
     a3c:	4e 0e       	add	r4, r30
     a3e:	5f 1e       	adc	r5, r31
     a40:	44 e2       	ldi	r20, 0x24	; 36
     a42:	50 e0       	ldi	r21, 0x00	; 0
     a44:	64 0e       	add	r6, r20
     a46:	75 1e       	adc	r7, r21
     a48:	55 e0       	ldi	r21, 0x05	; 5
     a4a:	c5 16       	cp	r12, r21
     a4c:	d1 04       	cpc	r13, r1
     a4e:	79 f0       	breq	.+30     	; 0xa6e <__stack+0x20f>
     a50:	20 e0       	ldi	r18, 0x00	; 0
     a52:	aa 24       	eor	r10, r10
     a54:	bb 24       	eor	r11, r11
     a56:	ee 24       	eor	r14, r14
     a58:	ff 24       	eor	r15, r15
     a5a:	a6 01       	movw	r20, r12
     a5c:	41 50       	subi	r20, 0x01	; 1
     a5e:	50 40       	sbci	r21, 0x00	; 0
     a60:	c5 50       	subi	r28, 0x05	; 5
     a62:	db 4f       	sbci	r29, 0xFB	; 251
     a64:	59 83       	std	Y+1, r21	; 0x01
     a66:	48 83       	st	Y, r20
     a68:	cb 5f       	subi	r28, 0xFB	; 251
     a6a:	d4 40       	sbci	r29, 0x04	; 4
     a6c:	30 cf       	rjmp	.-416    	; 0x8ce <__stack+0x6f>
     a6e:	80 e0       	ldi	r24, 0x00	; 0
     a70:	90 e0       	ldi	r25, 0x00	; 0
     a72:	e4 e2       	ldi	r30, 0x24	; 36
     a74:	f0 e0       	ldi	r31, 0x00	; 0
     a76:	ec 0f       	add	r30, r28
     a78:	fd 1f       	adc	r31, r29
     a7a:	e8 0f       	add	r30, r24
     a7c:	f9 1f       	adc	r31, r25
     a7e:	10 82       	st	Z, r1
     a80:	84 96       	adiw	r24, 0x24	; 36
     a82:	54 e0       	ldi	r21, 0x04	; 4
     a84:	8c 3e       	cpi	r24, 0xEC	; 236
     a86:	95 07       	cpc	r25, r21
     a88:	a1 f7       	brne	.-24     	; 0xa72 <__stack+0x213>
     a8a:	f4 e2       	ldi	r31, 0x24	; 36
     a8c:	ef 2e       	mov	r14, r31
     a8e:	f1 2c       	mov	r15, r1
     a90:	ec 0e       	add	r14, r28
     a92:	fd 1e       	adc	r15, r29
     a94:	60 e0       	ldi	r22, 0x00	; 0
     a96:	70 e0       	ldi	r23, 0x00	; 0
     a98:	d7 01       	movw	r26, r14
     a9a:	3d c0       	rjmp	.+122    	; 0xb16 <__stack+0x2b7>
     a9c:	f5 01       	movw	r30, r10
     a9e:	e0 80       	ld	r14, Z
     aa0:	fd 01       	movw	r30, r26
     aa2:	e2 0f       	add	r30, r18
     aa4:	f3 1f       	adc	r31, r19
     aa6:	60 80       	ld	r6, Z
     aa8:	6a 01       	movw	r12, r20
     aaa:	c2 0e       	add	r12, r18
     aac:	d3 1e       	adc	r13, r19
     aae:	06 2d       	mov	r16, r6
     ab0:	10 e0       	ldi	r17, 0x00	; 0
     ab2:	0e 0d       	add	r16, r14
     ab4:	11 1d       	adc	r17, r1
     ab6:	f6 01       	movw	r30, r12
     ab8:	80 81       	ld	r24, Z
     aba:	90 e0       	ldi	r25, 0x00	; 0
     abc:	08 17       	cp	r16, r24
     abe:	19 07       	cpc	r17, r25
     ac0:	34 f4       	brge	.+12     	; 0xace <__stack+0x26f>
     ac2:	e6 0c       	add	r14, r6
     ac4:	e0 82       	st	Z, r14
     ac6:	f4 01       	movw	r30, r8
     ac8:	e2 0f       	add	r30, r18
     aca:	f3 1f       	adc	r31, r19
     acc:	60 83       	st	Z, r22
     ace:	2f 5f       	subi	r18, 0xFF	; 255
     ad0:	3f 4f       	sbci	r19, 0xFF	; 255
     ad2:	23 32       	cpi	r18, 0x23	; 35
     ad4:	31 05       	cpc	r19, r1
     ad6:	11 f7       	brne	.-60     	; 0xa9c <__stack+0x23d>
     ad8:	4d 5d       	subi	r20, 0xDD	; 221
     ada:	5f 4f       	sbci	r21, 0xFF	; 255
     adc:	c3 51       	subi	r28, 0x13	; 19
     ade:	db 4f       	sbci	r29, 0xFB	; 251
     ae0:	88 81       	ld	r24, Y
     ae2:	99 81       	ldd	r25, Y+1	; 0x01
     ae4:	cd 5e       	subi	r28, 0xED	; 237
     ae6:	d4 40       	sbci	r29, 0x04	; 4
     ae8:	48 17       	cp	r20, r24
     aea:	59 07       	cpc	r21, r25
     aec:	71 f0       	breq	.+28     	; 0xb0a <__stack+0x2ab>
     aee:	20 e0       	ldi	r18, 0x00	; 0
     af0:	30 e0       	ldi	r19, 0x00	; 0
     af2:	5a 01       	movw	r10, r20
     af4:	a6 0e       	add	r10, r22
     af6:	b7 1e       	adc	r11, r23
     af8:	cf 50       	subi	r28, 0x0F	; 15
     afa:	db 4f       	sbci	r29, 0xFB	; 251
     afc:	88 80       	ld	r8, Y
     afe:	99 80       	ldd	r9, Y+1	; 0x01
     b00:	c1 5f       	subi	r28, 0xF1	; 241
     b02:	d4 40       	sbci	r29, 0x04	; 4
     b04:	84 0e       	add	r8, r20
     b06:	95 1e       	adc	r9, r21
     b08:	c9 cf       	rjmp	.-110    	; 0xa9c <__stack+0x23d>
     b0a:	6f 5f       	subi	r22, 0xFF	; 255
     b0c:	7f 4f       	sbci	r23, 0xFF	; 255
     b0e:	93 96       	adiw	r26, 0x23	; 35
     b10:	63 32       	cpi	r22, 0x23	; 35
     b12:	71 05       	cpc	r23, r1
     b14:	21 f0       	breq	.+8      	; 0xb1e <__stack+0x2bf>
     b16:	ae 01       	movw	r20, r28
     b18:	4c 5d       	subi	r20, 0xDC	; 220
     b1a:	5f 4f       	sbci	r21, 0xFF	; 255
     b1c:	e8 cf       	rjmp	.-48     	; 0xaee <__stack+0x28f>
     b1e:	10 92 63 00 	sts	0x0063, r1
     b22:	10 92 62 00 	sts	0x0062, r1
     b26:	40 e0       	ldi	r20, 0x00	; 0
     b28:	50 e0       	ldi	r21, 0x00	; 0
     b2a:	20 e0       	ldi	r18, 0x00	; 0
     b2c:	30 e0       	ldi	r19, 0x00	; 0
     b2e:	e1 e0       	ldi	r30, 0x01	; 1
     b30:	ae 2e       	mov	r10, r30
     b32:	b1 2c       	mov	r11, r1
     b34:	ac 0e       	add	r10, r28
     b36:	bd 1e       	adc	r11, r29
     b38:	e3 e2       	ldi	r30, 0x23	; 35
     b3a:	f0 e0       	ldi	r31, 0x00	; 0
     b3c:	ae 0e       	add	r10, r30
     b3e:	bf 1e       	adc	r11, r31
     b40:	06 c0       	rjmp	.+12     	; 0xb4e <__stack+0x2ef>
     b42:	a7 01       	movw	r20, r14
     b44:	96 01       	movw	r18, r12
     b46:	03 c0       	rjmp	.+6      	; 0xb4e <__stack+0x2ef>
     b48:	ab 01       	movw	r20, r22
     b4a:	2f ef       	ldi	r18, 0xFF	; 255
     b4c:	3f ef       	ldi	r19, 0xFF	; 255
     b4e:	00 91 62 00 	lds	r16, 0x0062
     b52:	10 91 63 00 	lds	r17, 0x0063
     b56:	f8 01       	movw	r30, r16
     b58:	ee 0f       	add	r30, r30
     b5a:	ff 1f       	adc	r31, r31
     b5c:	ee 0f       	add	r30, r30
     b5e:	ff 1f       	adc	r31, r31
     b60:	e1 5a       	subi	r30, 0xA1	; 161
     b62:	fa 4f       	sbci	r31, 0xFA	; 250
     b64:	31 83       	std	Z+1, r19	; 0x01
     b66:	20 83       	st	Z, r18
     b68:	53 83       	std	Z+3, r21	; 0x03
     b6a:	42 83       	std	Z+2, r20	; 0x02
     b6c:	c8 01       	movw	r24, r16
     b6e:	01 96       	adiw	r24, 0x01	; 1
     b70:	90 93 63 00 	sts	0x0063, r25
     b74:	80 93 62 00 	sts	0x0062, r24
     b78:	f9 01       	movw	r30, r18
     b7a:	73 e0       	ldi	r23, 0x03	; 3
     b7c:	ee 0f       	add	r30, r30
     b7e:	ff 1f       	adc	r31, r31
     b80:	7a 95       	dec	r23
     b82:	e1 f7       	brne	.-8      	; 0xb7c <__stack+0x31d>
     b84:	e2 1b       	sub	r30, r18
     b86:	f3 0b       	sbc	r31, r19
     b88:	e4 0f       	add	r30, r20
     b8a:	f5 1f       	adc	r31, r21
     b8c:	81 e0       	ldi	r24, 0x01	; 1
     b8e:	90 e0       	ldi	r25, 0x00	; 0
     b90:	8c 0f       	add	r24, r28
     b92:	9d 1f       	adc	r25, r29
     b94:	e8 0f       	add	r30, r24
     b96:	f9 1f       	adc	r31, r25
     b98:	10 82       	st	Z, r1
     b9a:	69 01       	movw	r12, r18
     b9c:	7a 01       	movw	r14, r20
     b9e:	ce 01       	movw	r24, r28
     ba0:	01 96       	adiw	r24, 0x01	; 1
     ba2:	b7 01       	movw	r22, r14
     ba4:	a6 01       	movw	r20, r12
     ba6:	0e 94 6c 03 	call	0x6d8	; 0x6d8 <_Z13nextneighbourPA7_h5Point>
     baa:	6b 01       	movw	r12, r22
     bac:	7c 01       	movw	r14, r24
     bae:	b7 01       	movw	r22, r14
     bb0:	9f ef       	ldi	r25, 0xFF	; 255
     bb2:	c9 16       	cp	r12, r25
     bb4:	9f ef       	ldi	r25, 0xFF	; 255
     bb6:	d9 06       	cpc	r13, r25
     bb8:	21 f6       	brne	.-120    	; 0xb42 <__stack+0x2e3>
     bba:	9e 01       	movw	r18, r28
     bbc:	2f 5f       	subi	r18, 0xFF	; 255
     bbe:	3f 4f       	sbci	r19, 0xFF	; 255
     bc0:	41 e0       	ldi	r20, 0x01	; 1
     bc2:	11 c0       	rjmp	.+34     	; 0xbe6 <__stack+0x387>
     bc4:	f9 01       	movw	r30, r18
     bc6:	e8 0f       	add	r30, r24
     bc8:	f9 1f       	adc	r31, r25
     bca:	50 81       	ld	r21, Z
     bcc:	51 30       	cpi	r21, 0x01	; 1
     bce:	29 f0       	breq	.+10     	; 0xbda <__stack+0x37b>
     bd0:	01 96       	adiw	r24, 0x01	; 1
     bd2:	86 30       	cpi	r24, 0x06	; 6
     bd4:	91 05       	cpc	r25, r1
     bd6:	b1 f7       	brne	.-20     	; 0xbc4 <__stack+0x365>
     bd8:	01 c0       	rjmp	.+2      	; 0xbdc <__stack+0x37d>
     bda:	42 e0       	ldi	r20, 0x02	; 2
     bdc:	29 5f       	subi	r18, 0xF9	; 249
     bde:	3f 4f       	sbci	r19, 0xFF	; 255
     be0:	2a 15       	cp	r18, r10
     be2:	3b 05       	cpc	r19, r11
     be4:	19 f0       	breq	.+6      	; 0xbec <__stack+0x38d>
     be6:	80 e0       	ldi	r24, 0x00	; 0
     be8:	90 e0       	ldi	r25, 0x00	; 0
     bea:	ec cf       	rjmp	.-40     	; 0xbc4 <__stack+0x365>
     bec:	42 30       	cpi	r20, 0x02	; 2
     bee:	29 f1       	breq	.+74     	; 0xc3a <__stack+0x3db>
     bf0:	27 c0       	rjmp	.+78     	; 0xc40 <__stack+0x3e1>
     bf2:	f8 01       	movw	r30, r16
     bf4:	ee 0f       	add	r30, r30
     bf6:	ff 1f       	adc	r31, r31
     bf8:	ee 0f       	add	r30, r30
     bfa:	ff 1f       	adc	r31, r31
     bfc:	e1 5a       	subi	r30, 0xA1	; 161
     bfe:	fa 4f       	sbci	r31, 0xFA	; 250
     c00:	c0 80       	ld	r12, Z
     c02:	d1 80       	ldd	r13, Z+1	; 0x01
     c04:	e2 80       	ldd	r14, Z+2	; 0x02
     c06:	f3 80       	ldd	r15, Z+3	; 0x03
     c08:	ce 01       	movw	r24, r28
     c0a:	01 96       	adiw	r24, 0x01	; 1
     c0c:	b7 01       	movw	r22, r14
     c0e:	a6 01       	movw	r20, r12
     c10:	0e 94 6c 03 	call	0x6d8	; 0x6d8 <_Z13nextneighbourPA7_h5Point>
     c14:	dc 01       	movw	r26, r24
     c16:	cb 01       	movw	r24, r22
     c18:	ef ef       	ldi	r30, 0xFF	; 255
     c1a:	8f 3f       	cpi	r24, 0xFF	; 255
     c1c:	9e 07       	cpc	r25, r30
     c1e:	59 f0       	breq	.+22     	; 0xc36 <__stack+0x3d7>
     c20:	ce 01       	movw	r24, r28
     c22:	01 96       	adiw	r24, 0x01	; 1
     c24:	b7 01       	movw	r22, r14
     c26:	a6 01       	movw	r20, r12
     c28:	0e 94 6c 03 	call	0x6d8	; 0x6d8 <_Z13nextneighbourPA7_h5Point>
     c2c:	6b 01       	movw	r12, r22
     c2e:	7c 01       	movw	r14, r24
     c30:	a7 01       	movw	r20, r14
     c32:	9b 01       	movw	r18, r22
     c34:	8c cf       	rjmp	.-232    	; 0xb4e <__stack+0x2ef>
     c36:	01 50       	subi	r16, 0x01	; 1
     c38:	10 40       	sbci	r17, 0x00	; 0
     c3a:	17 ff       	sbrs	r17, 7
     c3c:	da cf       	rjmp	.-76     	; 0xbf2 <__stack+0x393>
     c3e:	18 c0       	rjmp	.+48     	; 0xc70 <__stack+0x411>
     c40:	44 23       	and	r20, r20
     c42:	09 f4       	brne	.+2      	; 0xc46 <__stack+0x3e7>
     c44:	81 cf       	rjmp	.-254    	; 0xb48 <__stack+0x2e9>
     c46:	14 c0       	rjmp	.+40     	; 0xc70 <__stack+0x411>
     c48:	4f 5f       	subi	r20, 0xFF	; 255
     c4a:	5f 4f       	sbci	r21, 0xFF	; 255
     c4c:	45 30       	cpi	r20, 0x05	; 5
     c4e:	51 05       	cpc	r21, r1
     c50:	09 f0       	breq	.+2      	; 0xc54 <__stack+0x3f5>
     c52:	29 ce       	rjmp	.-942    	; 0x8a6 <__stack+0x47>
     c54:	04 e2       	ldi	r16, 0x24	; 36
     c56:	60 2e       	mov	r6, r16
     c58:	71 2c       	mov	r7, r1
     c5a:	6c 0e       	add	r6, r28
     c5c:	7d 1e       	adc	r7, r29
     c5e:	23 01       	movw	r4, r6
     c60:	4e 01       	movw	r8, r28
     c62:	08 94       	sec
     c64:	81 1c       	adc	r8, r1
     c66:	91 1c       	adc	r9, r1
     c68:	cc 24       	eor	r12, r12
     c6a:	dd 24       	eor	r13, r13
     c6c:	34 e6       	ldi	r19, 0x64	; 100
     c6e:	f0 ce       	rjmp	.-544    	; 0xa50 <__stack+0x1f1>
     c70:	ce 5f       	subi	r28, 0xFE	; 254
     c72:	da 4f       	sbci	r29, 0xFA	; 250
     c74:	0f b6       	in	r0, 0x3f	; 63
     c76:	f8 94       	cli
     c78:	de bf       	out	0x3e, r29	; 62
     c7a:	0f be       	out	0x3f, r0	; 63
     c7c:	cd bf       	out	0x3d, r28	; 61
     c7e:	df 91       	pop	r29
     c80:	cf 91       	pop	r28
     c82:	1f 91       	pop	r17
     c84:	0f 91       	pop	r16
     c86:	ff 90       	pop	r15
     c88:	ef 90       	pop	r14
     c8a:	df 90       	pop	r13
     c8c:	cf 90       	pop	r12
     c8e:	bf 90       	pop	r11
     c90:	af 90       	pop	r10
     c92:	9f 90       	pop	r9
     c94:	8f 90       	pop	r8
     c96:	7f 90       	pop	r7
     c98:	6f 90       	pop	r6
     c9a:	5f 90       	pop	r5
     c9c:	4f 90       	pop	r4
     c9e:	3f 90       	pop	r3
     ca0:	2f 90       	pop	r2
     ca2:	08 95       	ret

00000ca4 <_Z9nextPoint5PointS_>:
     ca4:	cf 92       	push	r12
     ca6:	df 92       	push	r13
     ca8:	ef 92       	push	r14
     caa:	ff 92       	push	r15
     cac:	cf 93       	push	r28
     cae:	df 93       	push	r29
     cb0:	6b 01       	movw	r12, r22
     cb2:	7c 01       	movw	r14, r24
     cb4:	da 01       	movw	r26, r20
     cb6:	c9 01       	movw	r24, r18
     cb8:	e9 01       	movw	r28, r18
     cba:	c7 01       	movw	r24, r14
     cbc:	88 0f       	add	r24, r24
     cbe:	99 1f       	adc	r25, r25
     cc0:	88 0f       	add	r24, r24
     cc2:	99 1f       	adc	r25, r25
     cc4:	8e 0d       	add	r24, r14
     cc6:	9f 1d       	adc	r25, r15
     cc8:	8c 0d       	add	r24, r12
     cca:	9d 1d       	adc	r25, r13
     ccc:	fd 01       	movw	r30, r26
     cce:	ee 0f       	add	r30, r30
     cd0:	ff 1f       	adc	r31, r31
     cd2:	ee 0f       	add	r30, r30
     cd4:	ff 1f       	adc	r31, r31
     cd6:	ea 0f       	add	r30, r26
     cd8:	fb 1f       	adc	r31, r27
     cda:	23 e2       	ldi	r18, 0x23	; 35
     cdc:	30 e0       	ldi	r19, 0x00	; 0
     cde:	82 9f       	mul	r24, r18
     ce0:	a0 01       	movw	r20, r0
     ce2:	83 9f       	mul	r24, r19
     ce4:	50 0d       	add	r21, r0
     ce6:	92 9f       	mul	r25, r18
     ce8:	50 0d       	add	r21, r0
     cea:	11 24       	eor	r1, r1
     cec:	e4 0f       	add	r30, r20
     cee:	f5 1f       	adc	r31, r21
     cf0:	ec 59       	subi	r30, 0x9C	; 156
     cf2:	ff 4f       	sbci	r31, 0xFF	; 255
     cf4:	ec 0f       	add	r30, r28
     cf6:	fd 1f       	adc	r31, r29
     cf8:	80 81       	ld	r24, Z
     cfa:	90 e0       	ldi	r25, 0x00	; 0
     cfc:	88 37       	cpi	r24, 0x78	; 120
     cfe:	91 05       	cpc	r25, r1
     d00:	19 f4       	brne	.+6      	; 0xd08 <_Z9nextPoint5PointS_+0x64>
     d02:	be 01       	movw	r22, r28
     d04:	cd 01       	movw	r24, r26
     d06:	0a c0       	rjmp	.+20     	; 0xd1c <_Z9nextPoint5PointS_+0x78>
     d08:	65 e0       	ldi	r22, 0x05	; 5
     d0a:	70 e0       	ldi	r23, 0x00	; 0
     d0c:	0e 94 96 0b 	call	0x172c	; 0x172c <__divmodhi4>
     d10:	9c 01       	movw	r18, r24
     d12:	ab 01       	movw	r20, r22
     d14:	c7 01       	movw	r24, r14
     d16:	b6 01       	movw	r22, r12
     d18:	0e 94 52 06 	call	0xca4	; 0xca4 <_Z9nextPoint5PointS_>
     d1c:	df 91       	pop	r29
     d1e:	cf 91       	pop	r28
     d20:	ff 90       	pop	r15
     d22:	ef 90       	pop	r14
     d24:	df 90       	pop	r13
     d26:	cf 90       	pop	r12
     d28:	08 95       	ret

00000d2a <_Z6getComv>:
     d2a:	0f 93       	push	r16
     d2c:	1f 93       	push	r17
     d2e:	cf 93       	push	r28
     d30:	80 91 46 05 	lds	r24, 0x0546
     d34:	82 30       	cpi	r24, 0x02	; 2
     d36:	d1 f1       	breq	.+116    	; 0xdac <_Z6getComv+0x82>
     d38:	83 30       	cpi	r24, 0x03	; 3
     d3a:	30 f4       	brcc	.+12     	; 0xd48 <_Z6getComv+0x1e>
     d3c:	88 23       	and	r24, r24
     d3e:	71 f0       	breq	.+28     	; 0xd5c <_Z6getComv+0x32>
     d40:	81 30       	cpi	r24, 0x01	; 1
     d42:	09 f0       	breq	.+2      	; 0xd46 <_Z6getComv+0x1c>
     d44:	94 c0       	rjmp	.+296    	; 0xe6e <_Z6getComv+0x144>
     d46:	19 c0       	rjmp	.+50     	; 0xd7a <_Z6getComv+0x50>
     d48:	84 30       	cpi	r24, 0x04	; 4
     d4a:	09 f4       	brne	.+2      	; 0xd4e <_Z6getComv+0x24>
     d4c:	5b c0       	rjmp	.+182    	; 0xe04 <_Z6getComv+0xda>
     d4e:	84 30       	cpi	r24, 0x04	; 4
     d50:	08 f4       	brcc	.+2      	; 0xd54 <_Z6getComv+0x2a>
     d52:	45 c0       	rjmp	.+138    	; 0xdde <_Z6getComv+0xb4>
     d54:	85 30       	cpi	r24, 0x05	; 5
     d56:	09 f0       	breq	.+2      	; 0xd5a <_Z6getComv+0x30>
     d58:	8a c0       	rjmp	.+276    	; 0xe6e <_Z6getComv+0x144>
     d5a:	67 c0       	rjmp	.+206    	; 0xe2a <_Z6getComv+0x100>
     d5c:	0e 94 95 00 	call	0x12a	; 0x12a <_Z15writeNodeColourv>
     d60:	60 91 49 05 	lds	r22, 0x0549
     d64:	70 91 4a 05 	lds	r23, 0x054A
     d68:	80 91 4b 05 	lds	r24, 0x054B
     d6c:	90 91 4c 05 	lds	r25, 0x054C
     d70:	40 91 48 05 	lds	r20, 0x0548
     d74:	0e 94 fd 00 	call	0x1fa	; 0x1fa <_Z17pathPlannerDryRun5Point9Direction>
     d78:	88 c0       	rjmp	.+272    	; 0xe8a <_Z6getComv+0x160>
     d7a:	60 91 49 05 	lds	r22, 0x0549
     d7e:	70 91 4a 05 	lds	r23, 0x054A
     d82:	80 91 4b 05 	lds	r24, 0x054B
     d86:	90 91 4c 05 	lds	r25, 0x054C
     d8a:	e0 91 4d 05 	lds	r30, 0x054D
     d8e:	f0 91 4e 05 	lds	r31, 0x054E
     d92:	ee 0f       	add	r30, r30
     d94:	ff 1f       	adc	r31, r31
     d96:	ee 0f       	add	r30, r30
     d98:	ff 1f       	adc	r31, r31
     d9a:	e1 5b       	subi	r30, 0xB1	; 177
     d9c:	fa 4f       	sbci	r31, 0xFA	; 250
     d9e:	00 81       	ld	r16, Z
     da0:	11 81       	ldd	r17, Z+1	; 0x01
     da2:	22 81       	ldd	r18, Z+2	; 0x02
     da4:	33 81       	ldd	r19, Z+3	; 0x03
     da6:	40 91 48 05 	lds	r20, 0x0548
     daa:	5e c0       	rjmp	.+188    	; 0xe68 <_Z6getComv+0x13e>
     dac:	c0 91 48 05 	lds	r28, 0x0548
     db0:	60 91 49 05 	lds	r22, 0x0549
     db4:	70 91 4a 05 	lds	r23, 0x054A
     db8:	80 91 4b 05 	lds	r24, 0x054B
     dbc:	90 91 4c 05 	lds	r25, 0x054C
     dc0:	e0 91 4d 05 	lds	r30, 0x054D
     dc4:	f0 91 4e 05 	lds	r31, 0x054E
     dc8:	ee 0f       	add	r30, r30
     dca:	ff 1f       	adc	r31, r31
     dcc:	ee 0f       	add	r30, r30
     dce:	ff 1f       	adc	r31, r31
     dd0:	e1 5a       	subi	r30, 0xA1	; 161
     dd2:	fa 4f       	sbci	r31, 0xFA	; 250
     dd4:	20 81       	ld	r18, Z
     dd6:	31 81       	ldd	r19, Z+1	; 0x01
     dd8:	42 81       	ldd	r20, Z+2	; 0x02
     dda:	53 81       	ldd	r21, Z+3	; 0x03
     ddc:	38 c0       	rjmp	.+112    	; 0xe4e <_Z6getComv+0x124>
     dde:	c0 91 48 05 	lds	r28, 0x0548
     de2:	60 91 49 05 	lds	r22, 0x0549
     de6:	70 91 4a 05 	lds	r23, 0x054A
     dea:	80 91 4b 05 	lds	r24, 0x054B
     dee:	90 91 4c 05 	lds	r25, 0x054C
     df2:	20 91 3a 05 	lds	r18, 0x053A
     df6:	30 91 3b 05 	lds	r19, 0x053B
     dfa:	40 91 3c 05 	lds	r20, 0x053C
     dfe:	50 91 3d 05 	lds	r21, 0x053D
     e02:	25 c0       	rjmp	.+74     	; 0xe4e <_Z6getComv+0x124>
     e04:	c0 91 48 05 	lds	r28, 0x0548
     e08:	60 91 49 05 	lds	r22, 0x0549
     e0c:	70 91 4a 05 	lds	r23, 0x054A
     e10:	80 91 4b 05 	lds	r24, 0x054B
     e14:	90 91 4c 05 	lds	r25, 0x054C
     e18:	20 91 36 05 	lds	r18, 0x0536
     e1c:	30 91 37 05 	lds	r19, 0x0537
     e20:	40 91 38 05 	lds	r20, 0x0538
     e24:	50 91 39 05 	lds	r21, 0x0539
     e28:	12 c0       	rjmp	.+36     	; 0xe4e <_Z6getComv+0x124>
     e2a:	c0 91 48 05 	lds	r28, 0x0548
     e2e:	60 91 49 05 	lds	r22, 0x0549
     e32:	70 91 4a 05 	lds	r23, 0x054A
     e36:	80 91 4b 05 	lds	r24, 0x054B
     e3a:	90 91 4c 05 	lds	r25, 0x054C
     e3e:	20 91 2d 05 	lds	r18, 0x052D
     e42:	30 91 2e 05 	lds	r19, 0x052E
     e46:	40 91 2f 05 	lds	r20, 0x052F
     e4a:	50 91 30 05 	lds	r21, 0x0530
     e4e:	0e 94 52 06 	call	0xca4	; 0xca4 <_Z9nextPoint5PointS_>
     e52:	8b 01       	movw	r16, r22
     e54:	9c 01       	movw	r18, r24
     e56:	60 91 49 05 	lds	r22, 0x0549
     e5a:	70 91 4a 05 	lds	r23, 0x054A
     e5e:	80 91 4b 05 	lds	r24, 0x054B
     e62:	90 91 4c 05 	lds	r25, 0x054C
     e66:	4c 2f       	mov	r20, r28
     e68:	0e 94 bb 00 	call	0x176	; 0x176 <_Z11pathPlanner5Point9DirectionS_>
     e6c:	0e c0       	rjmp	.+28     	; 0xe8a <_Z6getComv+0x160>
     e6e:	92 e0       	ldi	r25, 0x02	; 2
     e70:	88 b3       	in	r24, 0x18	; 24
     e72:	89 27       	eor	r24, r25
     e74:	88 bb       	out	0x18, r24	; 24
     e76:	2f ef       	ldi	r18, 0xFF	; 255
     e78:	39 e6       	ldi	r19, 0x69	; 105
     e7a:	48 e1       	ldi	r20, 0x18	; 24
     e7c:	21 50       	subi	r18, 0x01	; 1
     e7e:	30 40       	sbci	r19, 0x00	; 0
     e80:	40 40       	sbci	r20, 0x00	; 0
     e82:	e1 f7       	brne	.-8      	; 0xe7c <_Z6getComv+0x152>
     e84:	00 c0       	rjmp	.+0      	; 0xe86 <_Z6getComv+0x15c>
     e86:	00 00       	nop
     e88:	f3 cf       	rjmp	.-26     	; 0xe70 <_Z6getComv+0x146>
     e8a:	cf 91       	pop	r28
     e8c:	1f 91       	pop	r17
     e8e:	0f 91       	pop	r16
     e90:	08 95       	ret

00000e92 <_Z9startTimev>:
     e92:	10 92 61 00 	sts	0x0061, r1
     e96:	10 92 60 00 	sts	0x0060, r1
     e9a:	08 95       	ret

00000e9c <_Z17initialiseMainRuni>:
     e9c:	82 e0       	ldi	r24, 0x02	; 2
     e9e:	80 93 46 05 	sts	0x0546, r24
     ea2:	0e 94 75 00 	call	0xea	; 0xea <_Z18initialiseBotStatev>
     ea6:	0e 94 85 00 	call	0x10a	; 0x10a <_Z8adc_initv>
     eaa:	10 92 4e 05 	sts	0x054E, r1
     eae:	10 92 4d 05 	sts	0x054D, r1
     eb2:	83 e0       	ldi	r24, 0x03	; 3
     eb4:	88 bb       	out	0x18, r24	; 24
     eb6:	08 95       	ret

00000eb8 <_Z15reachedDataDestv>:
     eb8:	80 91 46 05 	lds	r24, 0x0546
     ebc:	88 23       	and	r24, r24
     ebe:	49 f4       	brne	.+18     	; 0xed2 <_Z15reachedDataDestv+0x1a>
     ec0:	15 ba       	out	0x15, r1	; 21
     ec2:	10 92 4e 05 	sts	0x054E, r1
     ec6:	10 92 4d 05 	sts	0x054D, r1
     eca:	81 e0       	ldi	r24, 0x01	; 1
     ecc:	80 93 46 05 	sts	0x0546, r24
     ed0:	d6 c1       	rjmp	.+940    	; 0x127e <_Z15reachedDataDestv+0x3c6>
     ed2:	81 30       	cpi	r24, 0x01	; 1
     ed4:	09 f0       	breq	.+2      	; 0xed8 <_Z15reachedDataDestv+0x20>
     ed6:	a8 c0       	rjmp	.+336    	; 0x1028 <_Z15reachedDataDestv+0x170>
     ed8:	83 e0       	ldi	r24, 0x03	; 3
     eda:	0e 94 ea 02 	call	0x5d4	; 0x5d4 <_Z5align9Direction>
     ede:	15 ba       	out	0x15, r1	; 21
     ee0:	b3 9b       	sbis	0x16, 3	; 22
     ee2:	d0 c1       	rjmp	.+928    	; 0x1284 <_Z15reachedDataDestv+0x3cc>
     ee4:	b7 9b       	sbis	0x16, 7	; 22
     ee6:	ce c1       	rjmp	.+924    	; 0x1284 <_Z15reachedDataDestv+0x3cc>
     ee8:	0e 94 61 02 	call	0x4c2	; 0x4c2 <_Z12nodeStraightv>
     eec:	8f ef       	ldi	r24, 0xFF	; 255
     eee:	91 ee       	ldi	r25, 0xE1	; 225
     ef0:	a4 e0       	ldi	r26, 0x04	; 4
     ef2:	81 50       	subi	r24, 0x01	; 1
     ef4:	90 40       	sbci	r25, 0x00	; 0
     ef6:	a0 40       	sbci	r26, 0x00	; 0
     ef8:	e1 f7       	brne	.-8      	; 0xef2 <_Z15reachedDataDestv+0x3a>
     efa:	00 c0       	rjmp	.+0      	; 0xefc <_Z15reachedDataDestv+0x44>
     efc:	00 00       	nop
     efe:	15 ba       	out	0x15, r1	; 21
     f00:	80 91 49 05 	lds	r24, 0x0549
     f04:	90 91 4a 05 	lds	r25, 0x054A
     f08:	01 97       	sbiw	r24, 0x01	; 1
     f0a:	90 93 4a 05 	sts	0x054A, r25
     f0e:	80 93 49 05 	sts	0x0549, r24
     f12:	85 e0       	ldi	r24, 0x05	; 5
     f14:	90 e0       	ldi	r25, 0x00	; 0
     f16:	90 93 45 05 	sts	0x0545, r25
     f1a:	80 93 44 05 	sts	0x0544, r24
     f1e:	86 e0       	ldi	r24, 0x06	; 6
     f20:	90 e0       	ldi	r25, 0x00	; 0
     f22:	90 93 43 05 	sts	0x0543, r25
     f26:	80 93 42 05 	sts	0x0542, r24
     f2a:	10 92 61 00 	sts	0x0061, r1
     f2e:	10 92 60 00 	sts	0x0060, r1
     f32:	46 c0       	rjmp	.+140    	; 0xfc0 <_Z15reachedDataDestv+0x108>
     f34:	b3 9b       	sbis	0x16, 3	; 22
     f36:	b2 c1       	rjmp	.+868    	; 0x129c <_Z15reachedDataDestv+0x3e4>
     f38:	b4 9b       	sbis	0x16, 4	; 22
     f3a:	b0 c1       	rjmp	.+864    	; 0x129c <_Z15reachedDataDestv+0x3e4>
     f3c:	b6 9b       	sbis	0x16, 6	; 22
     f3e:	ae c1       	rjmp	.+860    	; 0x129c <_Z15reachedDataDestv+0x3e4>
     f40:	b5 9b       	sbis	0x16, 5	; 22
     f42:	ac c1       	rjmp	.+856    	; 0x129c <_Z15reachedDataDestv+0x3e4>
     f44:	b7 99       	sbic	0x16, 7	; 22
     f46:	aa c1       	rjmp	.+852    	; 0x129c <_Z15reachedDataDestv+0x3e4>
     f48:	e0 91 4d 05 	lds	r30, 0x054D
     f4c:	f0 91 4e 05 	lds	r31, 0x054E
     f50:	ee 0f       	add	r30, r30
     f52:	ff 1f       	adc	r31, r31
     f54:	ee 0f       	add	r30, r30
     f56:	ff 1f       	adc	r31, r31
     f58:	e1 5b       	subi	r30, 0xB1	; 177
     f5a:	fa 4f       	sbci	r31, 0xFA	; 250
     f5c:	80 81       	ld	r24, Z
     f5e:	91 81       	ldd	r25, Z+1	; 0x01
     f60:	01 97       	sbiw	r24, 0x01	; 1
     f62:	90 93 37 05 	sts	0x0537, r25
     f66:	80 93 36 05 	sts	0x0536, r24
     f6a:	82 81       	ldd	r24, Z+2	; 0x02
     f6c:	93 81       	ldd	r25, Z+3	; 0x03
     f6e:	90 93 39 05 	sts	0x0539, r25
     f72:	80 93 38 05 	sts	0x0538, r24
     f76:	1f c0       	rjmp	.+62     	; 0xfb6 <_Z15reachedDataDestv+0xfe>
     f78:	b4 9b       	sbis	0x16, 4	; 22
     f7a:	92 c1       	rjmp	.+804    	; 0x12a0 <_Z15reachedDataDestv+0x3e8>
     f7c:	b6 9b       	sbis	0x16, 6	; 22
     f7e:	90 c1       	rjmp	.+800    	; 0x12a0 <_Z15reachedDataDestv+0x3e8>
     f80:	b5 9b       	sbis	0x16, 5	; 22
     f82:	8e c1       	rjmp	.+796    	; 0x12a0 <_Z15reachedDataDestv+0x3e8>
     f84:	b7 9b       	sbis	0x16, 7	; 22
     f86:	8c c1       	rjmp	.+792    	; 0x12a0 <_Z15reachedDataDestv+0x3e8>
     f88:	e0 91 4d 05 	lds	r30, 0x054D
     f8c:	f0 91 4e 05 	lds	r31, 0x054E
     f90:	ee 0f       	add	r30, r30
     f92:	ff 1f       	adc	r31, r31
     f94:	ee 0f       	add	r30, r30
     f96:	ff 1f       	adc	r31, r31
     f98:	e1 5b       	subi	r30, 0xB1	; 177
     f9a:	fa 4f       	sbci	r31, 0xFA	; 250
     f9c:	80 81       	ld	r24, Z
     f9e:	91 81       	ldd	r25, Z+1	; 0x01
     fa0:	01 97       	sbiw	r24, 0x01	; 1
     fa2:	90 93 33 05 	sts	0x0533, r25
     fa6:	80 93 32 05 	sts	0x0532, r24
     faa:	82 81       	ldd	r24, Z+2	; 0x02
     fac:	93 81       	ldd	r25, Z+3	; 0x03
     fae:	90 93 35 05 	sts	0x0535, r25
     fb2:	80 93 34 05 	sts	0x0534, r24
     fb6:	0e 94 bc 01 	call	0x378	; 0x378 <_Z9openFrontv>
     fba:	0e 94 d0 01 	call	0x3a0	; 0x3a0 <_Z10closeFrontv>
     fbe:	09 c0       	rjmp	.+18     	; 0xfd2 <_Z15reachedDataDestv+0x11a>
     fc0:	80 91 60 00 	lds	r24, 0x0060
     fc4:	90 91 61 00 	lds	r25, 0x0061
     fc8:	a2 e0       	ldi	r26, 0x02	; 2
     fca:	8c 31       	cpi	r24, 0x1C	; 28
     fcc:	9a 07       	cpc	r25, r26
     fce:	0c f4       	brge	.+2      	; 0xfd2 <_Z15reachedDataDestv+0x11a>
     fd0:	b1 cf       	rjmp	.-158    	; 0xf34 <_Z15reachedDataDestv+0x7c>
     fd2:	85 e0       	ldi	r24, 0x05	; 5
     fd4:	90 e0       	ldi	r25, 0x00	; 0
     fd6:	90 93 45 05 	sts	0x0545, r25
     fda:	80 93 44 05 	sts	0x0544, r24
     fde:	86 e0       	ldi	r24, 0x06	; 6
     fe0:	90 e0       	ldi	r25, 0x00	; 0
     fe2:	90 93 43 05 	sts	0x0543, r25
     fe6:	80 93 42 05 	sts	0x0542, r24
     fea:	b3 9b       	sbis	0x16, 3	; 22
     fec:	65 c1       	rjmp	.+714    	; 0x12b8 <_Z15reachedDataDestv+0x400>
     fee:	b7 9b       	sbis	0x16, 7	; 22
     ff0:	63 c1       	rjmp	.+710    	; 0x12b8 <_Z15reachedDataDestv+0x400>
     ff2:	b4 9b       	sbis	0x16, 4	; 22
     ff4:	61 c1       	rjmp	.+706    	; 0x12b8 <_Z15reachedDataDestv+0x400>
     ff6:	b6 9b       	sbis	0x16, 6	; 22
     ff8:	5f c1       	rjmp	.+702    	; 0x12b8 <_Z15reachedDataDestv+0x400>
     ffa:	b5 9b       	sbis	0x16, 5	; 22
     ffc:	5d c1       	rjmp	.+698    	; 0x12b8 <_Z15reachedDataDestv+0x400>
     ffe:	15 ba       	out	0x15, r1	; 21
    1000:	80 91 4d 05 	lds	r24, 0x054D
    1004:	90 91 4e 05 	lds	r25, 0x054E
    1008:	01 96       	adiw	r24, 0x01	; 1
    100a:	90 93 4e 05 	sts	0x054E, r25
    100e:	80 93 4d 05 	sts	0x054D, r24
    1012:	84 30       	cpi	r24, 0x04	; 4
    1014:	91 05       	cpc	r25, r1
    1016:	0c f4       	brge	.+2      	; 0x101a <_Z15reachedDataDestv+0x162>
    1018:	e1 c0       	rjmp	.+450    	; 0x11dc <_Z15reachedDataDestv+0x324>
    101a:	0e 94 d9 03 	call	0x7b2	; 0x7b2 <_Z35FloydWarshallWithPathReconstructionv>
    101e:	80 e0       	ldi	r24, 0x00	; 0
    1020:	90 e0       	ldi	r25, 0x00	; 0
    1022:	0e 94 4e 07 	call	0xe9c	; 0xe9c <_Z17initialiseMainRuni>
    1026:	2a c1       	rjmp	.+596    	; 0x127c <_Z15reachedDataDestv+0x3c4>
    1028:	82 30       	cpi	r24, 0x02	; 2
    102a:	59 f4       	brne	.+22     	; 0x1042 <_Z15reachedDataDestv+0x18a>
    102c:	15 ba       	out	0x15, r1	; 21
    102e:	80 91 4d 05 	lds	r24, 0x054D
    1032:	90 91 4e 05 	lds	r25, 0x054E
    1036:	01 96       	adiw	r24, 0x01	; 1
    1038:	90 93 4e 05 	sts	0x054E, r25
    103c:	80 93 4d 05 	sts	0x054D, r24
    1040:	cd c0       	rjmp	.+410    	; 0x11dc <_Z15reachedDataDestv+0x324>
    1042:	83 30       	cpi	r24, 0x03	; 3
    1044:	09 f0       	breq	.+2      	; 0x1048 <_Z15reachedDataDestv+0x190>
    1046:	6f c0       	rjmp	.+222    	; 0x1126 <_Z15reachedDataDestv+0x26e>
    1048:	15 ba       	out	0x15, r1	; 21
    104a:	0e 94 ea 02 	call	0x5d4	; 0x5d4 <_Z5align9Direction>
    104e:	b3 99       	sbic	0x16, 3	; 22
    1050:	08 c0       	rjmp	.+16     	; 0x1062 <_Z15reachedDataDestv+0x1aa>
    1052:	b7 99       	sbic	0x16, 7	; 22
    1054:	06 c0       	rjmp	.+12     	; 0x1062 <_Z15reachedDataDestv+0x1aa>
    1056:	b4 9b       	sbis	0x16, 4	; 22
    1058:	04 c0       	rjmp	.+8      	; 0x1062 <_Z15reachedDataDestv+0x1aa>
    105a:	b6 9b       	sbis	0x16, 6	; 22
    105c:	02 c0       	rjmp	.+4      	; 0x1062 <_Z15reachedDataDestv+0x1aa>
    105e:	b5 99       	sbic	0x16, 5	; 22
    1060:	37 c1       	rjmp	.+622    	; 0x12d0 <_Z15reachedDataDestv+0x418>
    1062:	0e 94 3c 01 	call	0x278	; 0x278 <_Z10linefollowv>
    1066:	8f ef       	ldi	r24, 0xFF	; 255
    1068:	90 e7       	ldi	r25, 0x70	; 112
    106a:	a2 e0       	ldi	r26, 0x02	; 2
    106c:	81 50       	subi	r24, 0x01	; 1
    106e:	90 40       	sbci	r25, 0x00	; 0
    1070:	a0 40       	sbci	r26, 0x00	; 0
    1072:	e1 f7       	brne	.-8      	; 0x106c <_Z15reachedDataDestv+0x1b4>
    1074:	00 c0       	rjmp	.+0      	; 0x1076 <_Z15reachedDataDestv+0x1be>
    1076:	00 00       	nop
    1078:	ea cf       	rjmp	.-44     	; 0x104e <_Z15reachedDataDestv+0x196>
    107a:	0e 94 3c 01 	call	0x278	; 0x278 <_Z10linefollowv>
    107e:	8f ef       	ldi	r24, 0xFF	; 255
    1080:	99 ef       	ldi	r25, 0xF9	; 249
    1082:	a0 e0       	ldi	r26, 0x00	; 0
    1084:	81 50       	subi	r24, 0x01	; 1
    1086:	90 40       	sbci	r25, 0x00	; 0
    1088:	a0 40       	sbci	r26, 0x00	; 0
    108a:	e1 f7       	brne	.-8      	; 0x1084 <_Z15reachedDataDestv+0x1cc>
    108c:	00 c0       	rjmp	.+0      	; 0x108e <_Z15reachedDataDestv+0x1d6>
    108e:	00 00       	nop
    1090:	80 91 60 00 	lds	r24, 0x0060
    1094:	90 91 61 00 	lds	r25, 0x0061
    1098:	a2 e0       	ldi	r26, 0x02	; 2
    109a:	8d 31       	cpi	r24, 0x1D	; 29
    109c:	9a 07       	cpc	r25, r26
    109e:	6c f3       	brlt	.-38     	; 0x107a <_Z15reachedDataDestv+0x1c2>
    10a0:	15 ba       	out	0x15, r1	; 21
    10a2:	8f ef       	ldi	r24, 0xFF	; 255
    10a4:	93 ed       	ldi	r25, 0xD3	; 211
    10a6:	a0 e3       	ldi	r26, 0x30	; 48
    10a8:	81 50       	subi	r24, 0x01	; 1
    10aa:	90 40       	sbci	r25, 0x00	; 0
    10ac:	a0 40       	sbci	r26, 0x00	; 0
    10ae:	e1 f7       	brne	.-8      	; 0x10a8 <_Z15reachedDataDestv+0x1f0>
    10b0:	00 c0       	rjmp	.+0      	; 0x10b2 <_Z15reachedDataDestv+0x1fa>
    10b2:	00 00       	nop
    10b4:	0e 94 bc 01 	call	0x378	; 0x378 <_Z9openFrontv>
    10b8:	10 92 31 05 	sts	0x0531, r1
    10bc:	85 e0       	ldi	r24, 0x05	; 5
    10be:	90 e0       	ldi	r25, 0x00	; 0
    10c0:	90 93 45 05 	sts	0x0545, r25
    10c4:	80 93 44 05 	sts	0x0544, r24
    10c8:	86 e0       	ldi	r24, 0x06	; 6
    10ca:	90 e0       	ldi	r25, 0x00	; 0
    10cc:	90 93 43 05 	sts	0x0543, r25
    10d0:	80 93 42 05 	sts	0x0542, r24
    10d4:	b3 9b       	sbis	0x16, 3	; 22
    10d6:	02 c1       	rjmp	.+516    	; 0x12dc <_Z15reachedDataDestv+0x424>
    10d8:	b7 9b       	sbis	0x16, 7	; 22
    10da:	00 c1       	rjmp	.+512    	; 0x12dc <_Z15reachedDataDestv+0x424>
    10dc:	b4 9b       	sbis	0x16, 4	; 22
    10de:	fe c0       	rjmp	.+508    	; 0x12dc <_Z15reachedDataDestv+0x424>
    10e0:	b6 9b       	sbis	0x16, 6	; 22
    10e2:	fc c0       	rjmp	.+504    	; 0x12dc <_Z15reachedDataDestv+0x424>
    10e4:	b5 9b       	sbis	0x16, 5	; 22
    10e6:	fa c0       	rjmp	.+500    	; 0x12dc <_Z15reachedDataDestv+0x424>
    10e8:	15 ba       	out	0x15, r1	; 21
    10ea:	89 e0       	ldi	r24, 0x09	; 9
    10ec:	90 e0       	ldi	r25, 0x00	; 0
    10ee:	90 93 45 05 	sts	0x0545, r25
    10f2:	80 93 44 05 	sts	0x0544, r24
    10f6:	8c e0       	ldi	r24, 0x0C	; 12
    10f8:	90 e0       	ldi	r25, 0x00	; 0
    10fa:	90 93 43 05 	sts	0x0543, r25
    10fe:	80 93 42 05 	sts	0x0542, r24
    1102:	81 e0       	ldi	r24, 0x01	; 1
    1104:	80 93 47 05 	sts	0x0547, r24
    1108:	8f ef       	ldi	r24, 0xFF	; 255
    110a:	93 eb       	ldi	r25, 0xB3	; 179
    110c:	a4 ec       	ldi	r26, 0xC4	; 196
    110e:	b4 e0       	ldi	r27, 0x04	; 4
    1110:	81 50       	subi	r24, 0x01	; 1
    1112:	90 40       	sbci	r25, 0x00	; 0
    1114:	a0 40       	sbci	r26, 0x00	; 0
    1116:	b0 40       	sbci	r27, 0x00	; 0
    1118:	d9 f7       	brne	.-10     	; 0x1110 <_Z15reachedDataDestv+0x258>
    111a:	00 c0       	rjmp	.+0      	; 0x111c <_Z15reachedDataDestv+0x264>
    111c:	00 00       	nop
    111e:	84 e0       	ldi	r24, 0x04	; 4
    1120:	80 93 46 05 	sts	0x0546, r24
    1124:	08 95       	ret
    1126:	84 30       	cpi	r24, 0x04	; 4
    1128:	09 f0       	breq	.+2      	; 0x112c <_Z15reachedDataDestv+0x274>
    112a:	5a c0       	rjmp	.+180    	; 0x11e0 <_Z15reachedDataDestv+0x328>
    112c:	15 ba       	out	0x15, r1	; 21
    112e:	83 e0       	ldi	r24, 0x03	; 3
    1130:	0e 94 ea 02 	call	0x5d4	; 0x5d4 <_Z5align9Direction>
    1134:	15 ba       	out	0x15, r1	; 21
    1136:	85 e0       	ldi	r24, 0x05	; 5
    1138:	90 e0       	ldi	r25, 0x00	; 0
    113a:	90 93 45 05 	sts	0x0545, r25
    113e:	80 93 44 05 	sts	0x0544, r24
    1142:	86 e0       	ldi	r24, 0x06	; 6
    1144:	90 e0       	ldi	r25, 0x00	; 0
    1146:	90 93 43 05 	sts	0x0543, r25
    114a:	80 93 42 05 	sts	0x0542, r24
    114e:	10 92 61 00 	sts	0x0061, r1
    1152:	10 92 60 00 	sts	0x0060, r1
    1156:	0b c0       	rjmp	.+22     	; 0x116e <_Z15reachedDataDestv+0x2b6>
    1158:	0e 94 3c 01 	call	0x278	; 0x278 <_Z10linefollowv>
    115c:	8f ef       	ldi	r24, 0xFF	; 255
    115e:	90 e7       	ldi	r25, 0x70	; 112
    1160:	a2 e0       	ldi	r26, 0x02	; 2
    1162:	81 50       	subi	r24, 0x01	; 1
    1164:	90 40       	sbci	r25, 0x00	; 0
    1166:	a0 40       	sbci	r26, 0x00	; 0
    1168:	e1 f7       	brne	.-8      	; 0x1162 <_Z15reachedDataDestv+0x2aa>
    116a:	00 c0       	rjmp	.+0      	; 0x116c <_Z15reachedDataDestv+0x2b4>
    116c:	00 00       	nop
    116e:	80 91 60 00 	lds	r24, 0x0060
    1172:	90 91 61 00 	lds	r25, 0x0061
    1176:	84 3b       	cpi	r24, 0xB4	; 180
    1178:	91 05       	cpc	r25, r1
    117a:	74 f3       	brlt	.-36     	; 0x1158 <_Z15reachedDataDestv+0x2a0>
    117c:	15 ba       	out	0x15, r1	; 21
    117e:	09 c0       	rjmp	.+18     	; 0x1192 <_Z15reachedDataDestv+0x2da>
    1180:	8f ef       	ldi	r24, 0xFF	; 255
    1182:	90 e7       	ldi	r25, 0x70	; 112
    1184:	a2 e0       	ldi	r26, 0x02	; 2
    1186:	81 50       	subi	r24, 0x01	; 1
    1188:	90 40       	sbci	r25, 0x00	; 0
    118a:	a0 40       	sbci	r26, 0x00	; 0
    118c:	e1 f7       	brne	.-8      	; 0x1186 <_Z15reachedDataDestv+0x2ce>
    118e:	00 c0       	rjmp	.+0      	; 0x1190 <_Z15reachedDataDestv+0x2d8>
    1190:	00 00       	nop
    1192:	80 e0       	ldi	r24, 0x00	; 0
    1194:	0e 94 8a 00 	call	0x114	; 0x114 <_Z8adc_readh>
    1198:	a3 e0       	ldi	r26, 0x03	; 3
    119a:	89 39       	cpi	r24, 0x99	; 153
    119c:	9a 07       	cpc	r25, r26
    119e:	80 f7       	brcc	.-32     	; 0x1180 <_Z15reachedDataDestv+0x2c8>
    11a0:	81 e0       	ldi	r24, 0x01	; 1
    11a2:	80 93 31 05 	sts	0x0531, r24
    11a6:	85 e0       	ldi	r24, 0x05	; 5
    11a8:	80 93 46 05 	sts	0x0546, r24
    11ac:	0e 94 d0 01 	call	0x3a0	; 0x3a0 <_Z10closeFrontv>
    11b0:	8a e0       	ldi	r24, 0x0A	; 10
    11b2:	90 e0       	ldi	r25, 0x00	; 0
    11b4:	90 93 45 05 	sts	0x0545, r25
    11b8:	80 93 44 05 	sts	0x0544, r24
    11bc:	8c e0       	ldi	r24, 0x0C	; 12
    11be:	90 e0       	ldi	r25, 0x00	; 0
    11c0:	90 93 43 05 	sts	0x0543, r25
    11c4:	80 93 42 05 	sts	0x0542, r24
    11c8:	b3 9b       	sbis	0x16, 3	; 22
    11ca:	94 c0       	rjmp	.+296    	; 0x12f4 <_Z15reachedDataDestv+0x43c>
    11cc:	b7 9b       	sbis	0x16, 7	; 22
    11ce:	92 c0       	rjmp	.+292    	; 0x12f4 <_Z15reachedDataDestv+0x43c>
    11d0:	b4 9b       	sbis	0x16, 4	; 22
    11d2:	90 c0       	rjmp	.+288    	; 0x12f4 <_Z15reachedDataDestv+0x43c>
    11d4:	b6 9b       	sbis	0x16, 6	; 22
    11d6:	8e c0       	rjmp	.+284    	; 0x12f4 <_Z15reachedDataDestv+0x43c>
    11d8:	b5 9b       	sbis	0x16, 5	; 22
    11da:	8c c0       	rjmp	.+280    	; 0x12f4 <_Z15reachedDataDestv+0x43c>
    11dc:	81 e0       	ldi	r24, 0x01	; 1
    11de:	4f c0       	rjmp	.+158    	; 0x127e <_Z15reachedDataDestv+0x3c6>
    11e0:	85 30       	cpi	r24, 0x05	; 5
    11e2:	09 f0       	breq	.+2      	; 0x11e6 <_Z15reachedDataDestv+0x32e>
    11e4:	a4 c0       	rjmp	.+328    	; 0x132e <_Z15reachedDataDestv+0x476>
    11e6:	15 ba       	out	0x15, r1	; 21
    11e8:	82 e0       	ldi	r24, 0x02	; 2
    11ea:	0e 94 ea 02 	call	0x5d4	; 0x5d4 <_Z5align9Direction>
    11ee:	15 ba       	out	0x15, r1	; 21
    11f0:	b3 99       	sbic	0x16, 3	; 22
    11f2:	08 c0       	rjmp	.+16     	; 0x1204 <_Z15reachedDataDestv+0x34c>
    11f4:	b7 99       	sbic	0x16, 7	; 22
    11f6:	06 c0       	rjmp	.+12     	; 0x1204 <_Z15reachedDataDestv+0x34c>
    11f8:	b4 9b       	sbis	0x16, 4	; 22
    11fa:	04 c0       	rjmp	.+8      	; 0x1204 <_Z15reachedDataDestv+0x34c>
    11fc:	b6 9b       	sbis	0x16, 6	; 22
    11fe:	02 c0       	rjmp	.+4      	; 0x1204 <_Z15reachedDataDestv+0x34c>
    1200:	b5 99       	sbic	0x16, 5	; 22
    1202:	84 c0       	rjmp	.+264    	; 0x130c <_Z15reachedDataDestv+0x454>
    1204:	0e 94 3c 01 	call	0x278	; 0x278 <_Z10linefollowv>
    1208:	f3 cf       	rjmp	.-26     	; 0x11f0 <_Z15reachedDataDestv+0x338>
    120a:	0e 94 3c 01 	call	0x278	; 0x278 <_Z10linefollowv>
    120e:	8f ef       	ldi	r24, 0xFF	; 255
    1210:	99 ef       	ldi	r25, 0xF9	; 249
    1212:	a0 e0       	ldi	r26, 0x00	; 0
    1214:	81 50       	subi	r24, 0x01	; 1
    1216:	90 40       	sbci	r25, 0x00	; 0
    1218:	a0 40       	sbci	r26, 0x00	; 0
    121a:	e1 f7       	brne	.-8      	; 0x1214 <_Z15reachedDataDestv+0x35c>
    121c:	00 c0       	rjmp	.+0      	; 0x121e <_Z15reachedDataDestv+0x366>
    121e:	00 00       	nop
    1220:	80 91 60 00 	lds	r24, 0x0060
    1224:	90 91 61 00 	lds	r25, 0x0061
    1228:	a1 e0       	ldi	r26, 0x01	; 1
    122a:	89 36       	cpi	r24, 0x69	; 105
    122c:	9a 07       	cpc	r25, r26
    122e:	6c f3       	brlt	.-38     	; 0x120a <_Z15reachedDataDestv+0x352>
    1230:	0e 94 bc 01 	call	0x378	; 0x378 <_Z9openFrontv>
    1234:	10 92 31 05 	sts	0x0531, r1
    1238:	85 e0       	ldi	r24, 0x05	; 5
    123a:	90 e0       	ldi	r25, 0x00	; 0
    123c:	90 93 45 05 	sts	0x0545, r25
    1240:	80 93 44 05 	sts	0x0544, r24
    1244:	86 e0       	ldi	r24, 0x06	; 6
    1246:	90 e0       	ldi	r25, 0x00	; 0
    1248:	90 93 43 05 	sts	0x0543, r25
    124c:	80 93 42 05 	sts	0x0542, r24
    1250:	b3 9b       	sbis	0x16, 3	; 22
    1252:	61 c0       	rjmp	.+194    	; 0x1316 <_Z15reachedDataDestv+0x45e>
    1254:	b7 9b       	sbis	0x16, 7	; 22
    1256:	5f c0       	rjmp	.+190    	; 0x1316 <_Z15reachedDataDestv+0x45e>
    1258:	b4 9b       	sbis	0x16, 4	; 22
    125a:	5d c0       	rjmp	.+186    	; 0x1316 <_Z15reachedDataDestv+0x45e>
    125c:	b6 9b       	sbis	0x16, 6	; 22
    125e:	5b c0       	rjmp	.+182    	; 0x1316 <_Z15reachedDataDestv+0x45e>
    1260:	b5 9b       	sbis	0x16, 5	; 22
    1262:	59 c0       	rjmp	.+178    	; 0x1316 <_Z15reachedDataDestv+0x45e>
    1264:	89 e0       	ldi	r24, 0x09	; 9
    1266:	90 e0       	ldi	r25, 0x00	; 0
    1268:	90 93 45 05 	sts	0x0545, r25
    126c:	80 93 44 05 	sts	0x0544, r24
    1270:	8c e0       	ldi	r24, 0x0C	; 12
    1272:	90 e0       	ldi	r25, 0x00	; 0
    1274:	90 93 43 05 	sts	0x0543, r25
    1278:	80 93 42 05 	sts	0x0542, r24
    127c:	83 e0       	ldi	r24, 0x03	; 3
    127e:	80 93 47 05 	sts	0x0547, r24
    1282:	08 95       	ret
    1284:	0e 94 3c 01 	call	0x278	; 0x278 <_Z10linefollowv>
    1288:	8f ef       	ldi	r24, 0xFF	; 255
    128a:	90 e7       	ldi	r25, 0x70	; 112
    128c:	a2 e0       	ldi	r26, 0x02	; 2
    128e:	81 50       	subi	r24, 0x01	; 1
    1290:	90 40       	sbci	r25, 0x00	; 0
    1292:	a0 40       	sbci	r26, 0x00	; 0
    1294:	e1 f7       	brne	.-8      	; 0x128e <_Z15reachedDataDestv+0x3d6>
    1296:	00 c0       	rjmp	.+0      	; 0x1298 <_Z15reachedDataDestv+0x3e0>
    1298:	00 00       	nop
    129a:	22 ce       	rjmp	.-956    	; 0xee0 <_Z15reachedDataDestv+0x28>
    129c:	b3 9b       	sbis	0x16, 3	; 22
    129e:	6c ce       	rjmp	.-808    	; 0xf78 <_Z15reachedDataDestv+0xc0>
    12a0:	0e 94 3c 01 	call	0x278	; 0x278 <_Z10linefollowv>
    12a4:	8f ef       	ldi	r24, 0xFF	; 255
    12a6:	90 e7       	ldi	r25, 0x70	; 112
    12a8:	a2 e0       	ldi	r26, 0x02	; 2
    12aa:	81 50       	subi	r24, 0x01	; 1
    12ac:	90 40       	sbci	r25, 0x00	; 0
    12ae:	a0 40       	sbci	r26, 0x00	; 0
    12b0:	e1 f7       	brne	.-8      	; 0x12aa <_Z15reachedDataDestv+0x3f2>
    12b2:	00 c0       	rjmp	.+0      	; 0x12b4 <_Z15reachedDataDestv+0x3fc>
    12b4:	00 00       	nop
    12b6:	84 ce       	rjmp	.-760    	; 0xfc0 <_Z15reachedDataDestv+0x108>
    12b8:	0e 94 6b 01 	call	0x2d6	; 0x2d6 <_Z18linefollowbackwardv>
    12bc:	8f ef       	ldi	r24, 0xFF	; 255
    12be:	90 e7       	ldi	r25, 0x70	; 112
    12c0:	a2 e0       	ldi	r26, 0x02	; 2
    12c2:	81 50       	subi	r24, 0x01	; 1
    12c4:	90 40       	sbci	r25, 0x00	; 0
    12c6:	a0 40       	sbci	r26, 0x00	; 0
    12c8:	e1 f7       	brne	.-8      	; 0x12c2 <_Z15reachedDataDestv+0x40a>
    12ca:	00 c0       	rjmp	.+0      	; 0x12cc <_Z15reachedDataDestv+0x414>
    12cc:	00 00       	nop
    12ce:	8d ce       	rjmp	.-742    	; 0xfea <_Z15reachedDataDestv+0x132>
    12d0:	15 ba       	out	0x15, r1	; 21
    12d2:	10 92 61 00 	sts	0x0061, r1
    12d6:	10 92 60 00 	sts	0x0060, r1
    12da:	da ce       	rjmp	.-588    	; 0x1090 <_Z15reachedDataDestv+0x1d8>
    12dc:	0e 94 6b 01 	call	0x2d6	; 0x2d6 <_Z18linefollowbackwardv>
    12e0:	8f ef       	ldi	r24, 0xFF	; 255
    12e2:	90 e7       	ldi	r25, 0x70	; 112
    12e4:	a2 e0       	ldi	r26, 0x02	; 2
    12e6:	81 50       	subi	r24, 0x01	; 1
    12e8:	90 40       	sbci	r25, 0x00	; 0
    12ea:	a0 40       	sbci	r26, 0x00	; 0
    12ec:	e1 f7       	brne	.-8      	; 0x12e6 <_Z15reachedDataDestv+0x42e>
    12ee:	00 c0       	rjmp	.+0      	; 0x12f0 <_Z15reachedDataDestv+0x438>
    12f0:	00 00       	nop
    12f2:	f0 ce       	rjmp	.-544    	; 0x10d4 <_Z15reachedDataDestv+0x21c>
    12f4:	0e 94 6b 01 	call	0x2d6	; 0x2d6 <_Z18linefollowbackwardv>
    12f8:	8f ef       	ldi	r24, 0xFF	; 255
    12fa:	90 e7       	ldi	r25, 0x70	; 112
    12fc:	a2 e0       	ldi	r26, 0x02	; 2
    12fe:	81 50       	subi	r24, 0x01	; 1
    1300:	90 40       	sbci	r25, 0x00	; 0
    1302:	a0 40       	sbci	r26, 0x00	; 0
    1304:	e1 f7       	brne	.-8      	; 0x12fe <_Z15reachedDataDestv+0x446>
    1306:	00 c0       	rjmp	.+0      	; 0x1308 <_Z15reachedDataDestv+0x450>
    1308:	00 00       	nop
    130a:	5e cf       	rjmp	.-324    	; 0x11c8 <_Z15reachedDataDestv+0x310>
    130c:	10 92 61 00 	sts	0x0061, r1
    1310:	10 92 60 00 	sts	0x0060, r1
    1314:	85 cf       	rjmp	.-246    	; 0x1220 <_Z15reachedDataDestv+0x368>
    1316:	0e 94 6b 01 	call	0x2d6	; 0x2d6 <_Z18linefollowbackwardv>
    131a:	8f ef       	ldi	r24, 0xFF	; 255
    131c:	91 ee       	ldi	r25, 0xE1	; 225
    131e:	a4 e0       	ldi	r26, 0x04	; 4
    1320:	81 50       	subi	r24, 0x01	; 1
    1322:	90 40       	sbci	r25, 0x00	; 0
    1324:	a0 40       	sbci	r26, 0x00	; 0
    1326:	e1 f7       	brne	.-8      	; 0x1320 <_Z15reachedDataDestv+0x468>
    1328:	00 c0       	rjmp	.+0      	; 0x132a <_Z15reachedDataDestv+0x472>
    132a:	00 00       	nop
    132c:	91 cf       	rjmp	.-222    	; 0x1250 <_Z15reachedDataDestv+0x398>
    132e:	08 95       	ret

00001330 <_Z4testv>:
    1330:	0e 94 d0 01 	call	0x3a0	; 0x3a0 <_Z10closeFrontv>
    1334:	0e 94 6b 01 	call	0x2d6	; 0x2d6 <_Z18linefollowbackwardv>
    1338:	8f ef       	ldi	r24, 0xFF	; 255
    133a:	90 e7       	ldi	r25, 0x70	; 112
    133c:	a2 e0       	ldi	r26, 0x02	; 2
    133e:	81 50       	subi	r24, 0x01	; 1
    1340:	90 40       	sbci	r25, 0x00	; 0
    1342:	a0 40       	sbci	r26, 0x00	; 0
    1344:	e1 f7       	brne	.-8      	; 0x133e <_Z4testv+0xe>
    1346:	00 c0       	rjmp	.+0      	; 0x1348 <_Z4testv+0x18>
    1348:	00 00       	nop
    134a:	f4 cf       	rjmp	.-24     	; 0x1334 <_Z4testv+0x4>

0000134c <__vector_11>:
    134c:	1f 92       	push	r1
    134e:	0f 92       	push	r0
    1350:	0f b6       	in	r0, 0x3f	; 63
    1352:	0f 92       	push	r0
    1354:	11 24       	eor	r1, r1
    1356:	2f 93       	push	r18
    1358:	3f 93       	push	r19
    135a:	8f 93       	push	r24
    135c:	9f 93       	push	r25
    135e:	f8 94       	cli
    1360:	80 91 3e 05 	lds	r24, 0x053E
    1364:	90 91 3f 05 	lds	r25, 0x053F
    1368:	01 96       	adiw	r24, 0x01	; 1
    136a:	90 93 3f 05 	sts	0x053F, r25
    136e:	80 93 3e 05 	sts	0x053E, r24
    1372:	20 91 44 05 	lds	r18, 0x0544
    1376:	30 91 45 05 	lds	r19, 0x0545
    137a:	82 17       	cp	r24, r18
    137c:	93 07       	cpc	r25, r19
    137e:	09 f4       	brne	.+2      	; 0x1382 <__vector_11+0x36>
    1380:	aa 98       	cbi	0x15, 2	; 21
    1382:	80 91 3e 05 	lds	r24, 0x053E
    1386:	90 91 3f 05 	lds	r25, 0x053F
    138a:	20 91 42 05 	lds	r18, 0x0542
    138e:	30 91 43 05 	lds	r19, 0x0543
    1392:	82 17       	cp	r24, r18
    1394:	93 07       	cpc	r25, r19
    1396:	09 f4       	brne	.+2      	; 0x139a <__vector_11+0x4e>
    1398:	ad 98       	cbi	0x15, 5	; 21
    139a:	20 91 40 05 	lds	r18, 0x0540
    139e:	30 91 41 05 	lds	r19, 0x0541
    13a2:	82 17       	cp	r24, r18
    13a4:	93 07       	cpc	r25, r19
    13a6:	09 f4       	brne	.+2      	; 0x13aa <__vector_11+0x5e>
    13a8:	dd 98       	cbi	0x1b, 5	; 27
    13aa:	84 31       	cpi	r24, 0x14	; 20
    13ac:	91 05       	cpc	r25, r1
    13ae:	41 f4       	brne	.+16     	; 0x13c0 <__vector_11+0x74>
    13b0:	10 92 3f 05 	sts	0x053F, r1
    13b4:	10 92 3e 05 	sts	0x053E, r1
    13b8:	85 b3       	in	r24, 0x15	; 21
    13ba:	84 62       	ori	r24, 0x24	; 36
    13bc:	85 bb       	out	0x15, r24	; 21
    13be:	dd 9a       	sbi	0x1b, 5	; 27
    13c0:	78 94       	sei
    13c2:	9f 91       	pop	r25
    13c4:	8f 91       	pop	r24
    13c6:	3f 91       	pop	r19
    13c8:	2f 91       	pop	r18
    13ca:	0f 90       	pop	r0
    13cc:	0f be       	out	0x3f, r0	; 63
    13ce:	0f 90       	pop	r0
    13d0:	1f 90       	pop	r1
    13d2:	18 95       	reti

000013d4 <__vector_5>:
    13d4:	1f 92       	push	r1
    13d6:	0f 92       	push	r0
    13d8:	0f b6       	in	r0, 0x3f	; 63
    13da:	0f 92       	push	r0
    13dc:	11 24       	eor	r1, r1
    13de:	2f 93       	push	r18
    13e0:	8f 93       	push	r24
    13e2:	9f 93       	push	r25
    13e4:	f8 94       	cli
    13e6:	80 91 60 00 	lds	r24, 0x0060
    13ea:	90 91 61 00 	lds	r25, 0x0061
    13ee:	01 96       	adiw	r24, 0x01	; 1
    13f0:	90 93 61 00 	sts	0x0061, r25
    13f4:	80 93 60 00 	sts	0x0060, r24
    13f8:	23 e1       	ldi	r18, 0x13	; 19
    13fa:	89 38       	cpi	r24, 0x89	; 137
    13fc:	92 07       	cpc	r25, r18
    13fe:	24 f0       	brlt	.+8      	; 0x1408 <__vector_5+0x34>
    1400:	10 92 61 00 	sts	0x0061, r1
    1404:	10 92 60 00 	sts	0x0060, r1
    1408:	78 94       	sei
    140a:	9f 91       	pop	r25
    140c:	8f 91       	pop	r24
    140e:	2f 91       	pop	r18
    1410:	0f 90       	pop	r0
    1412:	0f be       	out	0x3f, r0	; 63
    1414:	0f 90       	pop	r0
    1416:	1f 90       	pop	r1
    1418:	18 95       	reti

0000141a <__vector_1>:
    141a:	1f 92       	push	r1
    141c:	0f 92       	push	r0
    141e:	0f b6       	in	r0, 0x3f	; 63
    1420:	0f 92       	push	r0
    1422:	11 24       	eor	r1, r1
    1424:	2f 93       	push	r18
    1426:	3f 93       	push	r19
    1428:	4f 93       	push	r20
    142a:	5f 93       	push	r21
    142c:	6f 93       	push	r22
    142e:	7f 93       	push	r23
    1430:	8f 93       	push	r24
    1432:	9f 93       	push	r25
    1434:	af 93       	push	r26
    1436:	bf 93       	push	r27
    1438:	ef 93       	push	r30
    143a:	ff 93       	push	r31
    143c:	15 ba       	out	0x15, r1	; 21
    143e:	80 91 46 05 	lds	r24, 0x0546
    1442:	81 30       	cpi	r24, 0x01	; 1
    1444:	89 f4       	brne	.+34     	; 0x1468 <__vector_1+0x4e>
    1446:	8f ef       	ldi	r24, 0xFF	; 255
    1448:	93 ed       	ldi	r25, 0xD3	; 211
    144a:	a0 e3       	ldi	r26, 0x30	; 48
    144c:	81 50       	subi	r24, 0x01	; 1
    144e:	90 40       	sbci	r25, 0x00	; 0
    1450:	a0 40       	sbci	r26, 0x00	; 0
    1452:	e1 f7       	brne	.-8      	; 0x144c <__vector_1+0x32>
    1454:	00 c0       	rjmp	.+0      	; 0x1456 <__vector_1+0x3c>
    1456:	00 00       	nop
    1458:	82 e0       	ldi	r24, 0x02	; 2
    145a:	80 93 46 05 	sts	0x0546, r24
    145e:	0e 94 75 00 	call	0xea	; 0xea <_Z18initialiseBotStatev>
    1462:	0e 94 d9 03 	call	0x7b2	; 0x7b2 <_Z35FloydWarshallWithPathReconstructionv>
    1466:	20 c0       	rjmp	.+64     	; 0x14a8 <__vector_1+0x8e>
    1468:	98 2f       	mov	r25, r24
    146a:	92 50       	subi	r25, 0x02	; 2
    146c:	92 30       	cpi	r25, 0x02	; 2
    146e:	58 f4       	brcc	.+22     	; 0x1486 <__vector_1+0x6c>
    1470:	8f ef       	ldi	r24, 0xFF	; 255
    1472:	97 ea       	ldi	r25, 0xA7	; 167
    1474:	a1 e6       	ldi	r26, 0x61	; 97
    1476:	81 50       	subi	r24, 0x01	; 1
    1478:	90 40       	sbci	r25, 0x00	; 0
    147a:	a0 40       	sbci	r26, 0x00	; 0
    147c:	e1 f7       	brne	.-8      	; 0x1476 <__vector_1+0x5c>
    147e:	00 c0       	rjmp	.+0      	; 0x1480 <__vector_1+0x66>
    1480:	00 00       	nop
    1482:	82 e0       	ldi	r24, 0x02	; 2
    1484:	0d c0       	rjmp	.+26     	; 0x14a0 <__vector_1+0x86>
    1486:	84 50       	subi	r24, 0x04	; 4
    1488:	82 30       	cpi	r24, 0x02	; 2
    148a:	98 f4       	brcc	.+38     	; 0x14b2 <__vector_1+0x98>
    148c:	8f ef       	ldi	r24, 0xFF	; 255
    148e:	9b e7       	ldi	r25, 0x7B	; 123
    1490:	a2 e9       	ldi	r26, 0x92	; 146
    1492:	81 50       	subi	r24, 0x01	; 1
    1494:	90 40       	sbci	r25, 0x00	; 0
    1496:	a0 40       	sbci	r26, 0x00	; 0
    1498:	e1 f7       	brne	.-8      	; 0x1492 <__vector_1+0x78>
    149a:	00 c0       	rjmp	.+0      	; 0x149c <__vector_1+0x82>
    149c:	00 00       	nop
    149e:	84 e0       	ldi	r24, 0x04	; 4
    14a0:	80 93 46 05 	sts	0x0546, r24
    14a4:	0e 94 75 00 	call	0xea	; 0xea <_Z18initialiseBotStatev>
    14a8:	10 92 4e 05 	sts	0x054E, r1
    14ac:	10 92 4d 05 	sts	0x054D, r1
    14b0:	18 ba       	out	0x18, r1	; 24
    14b2:	ff 91       	pop	r31
    14b4:	ef 91       	pop	r30
    14b6:	bf 91       	pop	r27
    14b8:	af 91       	pop	r26
    14ba:	9f 91       	pop	r25
    14bc:	8f 91       	pop	r24
    14be:	7f 91       	pop	r23
    14c0:	6f 91       	pop	r22
    14c2:	5f 91       	pop	r21
    14c4:	4f 91       	pop	r20
    14c6:	3f 91       	pop	r19
    14c8:	2f 91       	pop	r18
    14ca:	0f 90       	pop	r0
    14cc:	0f be       	out	0x3f, r0	; 63
    14ce:	0f 90       	pop	r0
    14d0:	1f 90       	pop	r1
    14d2:	18 95       	reti

000014d4 <main>:
    14d4:	cf 93       	push	r28
    14d6:	df 93       	push	r29
    14d8:	0f 92       	push	r0
    14da:	cd b7       	in	r28, 0x3d	; 61
    14dc:	de b7       	in	r29, 0x3e	; 62
    14de:	0e 94 3b 03 	call	0x676	; 0x676 <_Z5setupv>
    14e2:	10 92 46 05 	sts	0x0546, r1
    14e6:	10 92 31 05 	sts	0x0531, r1
    14ea:	10 92 4e 05 	sts	0x054E, r1
    14ee:	10 92 4d 05 	sts	0x054D, r1
    14f2:	0e 94 d0 01 	call	0x3a0	; 0x3a0 <_Z10closeFrontv>
    14f6:	0e 94 bc 01 	call	0x378	; 0x378 <_Z9openFrontv>
    14fa:	63 e0       	ldi	r22, 0x03	; 3
    14fc:	e6 2e       	mov	r14, r22
    14fe:	11 e0       	ldi	r17, 0x01	; 1
    1500:	72 e0       	ldi	r23, 0x02	; 2
    1502:	f7 2e       	mov	r15, r23
    1504:	80 91 46 05 	lds	r24, 0x0546
    1508:	82 30       	cpi	r24, 0x02	; 2
    150a:	81 f4       	brne	.+32     	; 0x152c <main+0x58>
    150c:	80 91 47 05 	lds	r24, 0x0547
    1510:	83 30       	cpi	r24, 0x03	; 3
    1512:	61 f0       	breq	.+24     	; 0x152c <main+0x58>
    1514:	80 e0       	ldi	r24, 0x00	; 0
    1516:	0e 94 8a 00 	call	0x114	; 0x114 <_Z8adc_readh>
    151a:	8b 34       	cpi	r24, 0x4B	; 75
    151c:	91 05       	cpc	r25, r1
    151e:	30 f4       	brcc	.+12     	; 0x152c <main+0x58>
    1520:	e0 92 46 05 	sts	0x0546, r14
    1524:	10 93 31 05 	sts	0x0531, r17
    1528:	0e 94 d0 01 	call	0x3a0	; 0x3a0 <_Z10closeFrontv>
    152c:	00 91 47 05 	lds	r16, 0x0547
    1530:	01 30       	cpi	r16, 0x01	; 1
    1532:	09 f4       	brne	.+2      	; 0x1536 <main+0x62>
    1534:	4a c0       	rjmp	.+148    	; 0x15ca <main+0xf6>
    1536:	01 30       	cpi	r16, 0x01	; 1
    1538:	38 f0       	brcs	.+14     	; 0x1548 <main+0x74>
    153a:	02 30       	cpi	r16, 0x02	; 2
    153c:	09 f4       	brne	.+2      	; 0x1540 <main+0x6c>
    153e:	9b c0       	rjmp	.+310    	; 0x1676 <main+0x1a2>
    1540:	03 30       	cpi	r16, 0x03	; 3
    1542:	09 f0       	breq	.+2      	; 0x1546 <main+0x72>
    1544:	9c c0       	rjmp	.+312    	; 0x167e <main+0x1aa>
    1546:	9a c0       	rjmp	.+308    	; 0x167c <main+0x1a8>
    1548:	0e 94 3c 01 	call	0x278	; 0x278 <_Z10linefollowv>
    154c:	b3 9b       	sbis	0x16, 3	; 22
    154e:	97 c0       	rjmp	.+302    	; 0x167e <main+0x1aa>
    1550:	b7 9b       	sbis	0x16, 7	; 22
    1552:	95 c0       	rjmp	.+298    	; 0x167e <main+0x1aa>
    1554:	15 ba       	out	0x15, r1	; 21
    1556:	8f ef       	ldi	r24, 0xFF	; 255
    1558:	91 ee       	ldi	r25, 0xE1	; 225
    155a:	a4 e0       	ldi	r26, 0x04	; 4
    155c:	81 50       	subi	r24, 0x01	; 1
    155e:	90 40       	sbci	r25, 0x00	; 0
    1560:	a0 40       	sbci	r26, 0x00	; 0
    1562:	e1 f7       	brne	.-8      	; 0x155c <main+0x88>
    1564:	00 c0       	rjmp	.+0      	; 0x1566 <main+0x92>
    1566:	00 00       	nop
    1568:	b3 9b       	sbis	0x16, 3	; 22
    156a:	89 c0       	rjmp	.+274    	; 0x167e <main+0x1aa>
    156c:	b7 9b       	sbis	0x16, 7	; 22
    156e:	87 c0       	rjmp	.+270    	; 0x167e <main+0x1aa>
    1570:	80 91 48 05 	lds	r24, 0x0548
    1574:	81 30       	cpi	r24, 0x01	; 1
    1576:	69 f0       	breq	.+26     	; 0x1592 <main+0xbe>
    1578:	81 30       	cpi	r24, 0x01	; 1
    157a:	28 f0       	brcs	.+10     	; 0x1586 <main+0xb2>
    157c:	82 30       	cpi	r24, 0x02	; 2
    157e:	99 f0       	breq	.+38     	; 0x15a6 <main+0xd2>
    1580:	83 30       	cpi	r24, 0x03	; 3
    1582:	01 f5       	brne	.+64     	; 0x15c4 <main+0xf0>
    1584:	16 c0       	rjmp	.+44     	; 0x15b2 <main+0xde>
    1586:	80 91 4b 05 	lds	r24, 0x054B
    158a:	90 91 4c 05 	lds	r25, 0x054C
    158e:	01 97       	sbiw	r24, 0x01	; 1
    1590:	05 c0       	rjmp	.+10     	; 0x159c <main+0xc8>
    1592:	80 91 4b 05 	lds	r24, 0x054B
    1596:	90 91 4c 05 	lds	r25, 0x054C
    159a:	01 96       	adiw	r24, 0x01	; 1
    159c:	90 93 4c 05 	sts	0x054C, r25
    15a0:	80 93 4b 05 	sts	0x054B, r24
    15a4:	0f c0       	rjmp	.+30     	; 0x15c4 <main+0xf0>
    15a6:	80 91 49 05 	lds	r24, 0x0549
    15aa:	90 91 4a 05 	lds	r25, 0x054A
    15ae:	01 96       	adiw	r24, 0x01	; 1
    15b0:	05 c0       	rjmp	.+10     	; 0x15bc <main+0xe8>
    15b2:	80 91 49 05 	lds	r24, 0x0549
    15b6:	90 91 4a 05 	lds	r25, 0x054A
    15ba:	01 97       	sbiw	r24, 0x01	; 1
    15bc:	90 93 4a 05 	sts	0x054A, r25
    15c0:	80 93 49 05 	sts	0x0549, r24
    15c4:	10 93 47 05 	sts	0x0547, r17
    15c8:	5a c0       	rjmp	.+180    	; 0x167e <main+0x1aa>
    15ca:	15 ba       	out	0x15, r1	; 21
    15cc:	0e 94 95 06 	call	0xd2a	; 0xd2a <_Z6getComv>
    15d0:	82 30       	cpi	r24, 0x02	; 2
    15d2:	99 f0       	breq	.+38     	; 0x15fa <main+0x126>
    15d4:	83 30       	cpi	r24, 0x03	; 3
    15d6:	30 f4       	brcc	.+12     	; 0x15e4 <main+0x110>
    15d8:	88 23       	and	r24, r24
    15da:	61 f0       	breq	.+24     	; 0x15f4 <main+0x120>
    15dc:	81 30       	cpi	r24, 0x01	; 1
    15de:	09 f0       	breq	.+2      	; 0x15e2 <main+0x10e>
    15e0:	4e c0       	rjmp	.+156    	; 0x167e <main+0x1aa>
    15e2:	1a c0       	rjmp	.+52     	; 0x1618 <main+0x144>
    15e4:	83 30       	cpi	r24, 0x03	; 3
    15e6:	51 f1       	breq	.+84     	; 0x163c <main+0x168>
    15e8:	84 30       	cpi	r24, 0x04	; 4
    15ea:	09 f0       	breq	.+2      	; 0x15ee <main+0x11a>
    15ec:	48 c0       	rjmp	.+144    	; 0x167e <main+0x1aa>
    15ee:	f0 92 47 05 	sts	0x0547, r15
    15f2:	45 c0       	rjmp	.+138    	; 0x167e <main+0x1aa>
    15f4:	0e 94 61 02 	call	0x4c2	; 0x4c2 <_Z12nodeStraightv>
    15f8:	3b c0       	rjmp	.+118    	; 0x1670 <main+0x19c>
    15fa:	89 83       	std	Y+1, r24	; 0x01
    15fc:	0e 94 22 02 	call	0x444	; 0x444 <_Z13nodeRightTurnv>
    1600:	90 91 48 05 	lds	r25, 0x0548
    1604:	89 81       	ldd	r24, Y+1	; 0x01
    1606:	91 30       	cpi	r25, 0x01	; 1
    1608:	b1 f0       	breq	.+44     	; 0x1636 <main+0x162>
    160a:	91 30       	cpi	r25, 0x01	; 1
    160c:	30 f1       	brcs	.+76     	; 0x165a <main+0x186>
    160e:	92 30       	cpi	r25, 0x02	; 2
    1610:	39 f1       	breq	.+78     	; 0x1660 <main+0x18c>
    1612:	93 30       	cpi	r25, 0x03	; 3
    1614:	69 f5       	brne	.+90     	; 0x1670 <main+0x19c>
    1616:	2a c0       	rjmp	.+84     	; 0x166c <main+0x198>
    1618:	89 83       	std	Y+1, r24	; 0x01
    161a:	0e 94 e3 01 	call	0x3c6	; 0x3c6 <_Z12nodeLeftTurnv>
    161e:	90 91 48 05 	lds	r25, 0x0548
    1622:	89 81       	ldd	r24, Y+1	; 0x01
    1624:	91 30       	cpi	r25, 0x01	; 1
    1626:	f9 f0       	breq	.+62     	; 0x1666 <main+0x192>
    1628:	91 30       	cpi	r25, 0x01	; 1
    162a:	28 f0       	brcs	.+10     	; 0x1636 <main+0x162>
    162c:	92 30       	cpi	r25, 0x02	; 2
    162e:	f1 f0       	breq	.+60     	; 0x166c <main+0x198>
    1630:	93 30       	cpi	r25, 0x03	; 3
    1632:	f1 f4       	brne	.+60     	; 0x1670 <main+0x19c>
    1634:	12 c0       	rjmp	.+36     	; 0x165a <main+0x186>
    1636:	e0 92 48 05 	sts	0x0548, r14
    163a:	1a c0       	rjmp	.+52     	; 0x1670 <main+0x19c>
    163c:	89 83       	std	Y+1, r24	; 0x01
    163e:	0e 94 ab 02 	call	0x556	; 0x556 <_Z9nodeUTurnv>
    1642:	90 91 48 05 	lds	r25, 0x0548
    1646:	89 81       	ldd	r24, Y+1	; 0x01
    1648:	91 30       	cpi	r25, 0x01	; 1
    164a:	81 f0       	breq	.+32     	; 0x166c <main+0x198>
    164c:	91 30       	cpi	r25, 0x01	; 1
    164e:	40 f0       	brcs	.+16     	; 0x1660 <main+0x18c>
    1650:	92 30       	cpi	r25, 0x02	; 2
    1652:	19 f0       	breq	.+6      	; 0x165a <main+0x186>
    1654:	93 30       	cpi	r25, 0x03	; 3
    1656:	61 f4       	brne	.+24     	; 0x1670 <main+0x19c>
    1658:	06 c0       	rjmp	.+12     	; 0x1666 <main+0x192>
    165a:	80 93 48 05 	sts	0x0548, r24
    165e:	08 c0       	rjmp	.+16     	; 0x1670 <main+0x19c>
    1660:	00 93 48 05 	sts	0x0548, r16
    1664:	05 c0       	rjmp	.+10     	; 0x1670 <main+0x19c>
    1666:	f0 92 48 05 	sts	0x0548, r15
    166a:	02 c0       	rjmp	.+4      	; 0x1670 <main+0x19c>
    166c:	10 92 48 05 	sts	0x0548, r1
    1670:	10 92 47 05 	sts	0x0547, r1
    1674:	04 c0       	rjmp	.+8      	; 0x167e <main+0x1aa>
    1676:	0e 94 5c 07 	call	0xeb8	; 0xeb8 <_Z15reachedDataDestv>
    167a:	01 c0       	rjmp	.+2      	; 0x167e <main+0x1aa>
    167c:	15 ba       	out	0x15, r1	; 21
    167e:	8f ef       	ldi	r24, 0xFF	; 255
    1680:	90 e7       	ldi	r25, 0x70	; 112
    1682:	a2 e0       	ldi	r26, 0x02	; 2
    1684:	81 50       	subi	r24, 0x01	; 1
    1686:	90 40       	sbci	r25, 0x00	; 0
    1688:	a0 40       	sbci	r26, 0x00	; 0
    168a:	e1 f7       	brne	.-8      	; 0x1684 <main+0x1b0>
    168c:	00 c0       	rjmp	.+0      	; 0x168e <main+0x1ba>
    168e:	00 00       	nop
    1690:	39 cf       	rjmp	.-398    	; 0x1504 <main+0x30>

00001692 <_GLOBAL__sub_I_goalArr>:
    1692:	81 e0       	ldi	r24, 0x01	; 1
    1694:	90 e0       	ldi	r25, 0x00	; 0
    1696:	90 93 50 05 	sts	0x0550, r25
    169a:	80 93 4f 05 	sts	0x054F, r24
    169e:	25 e0       	ldi	r18, 0x05	; 5
    16a0:	30 e0       	ldi	r19, 0x00	; 0
    16a2:	30 93 52 05 	sts	0x0552, r19
    16a6:	20 93 51 05 	sts	0x0551, r18
    16aa:	90 93 54 05 	sts	0x0554, r25
    16ae:	80 93 53 05 	sts	0x0553, r24
    16b2:	24 e0       	ldi	r18, 0x04	; 4
    16b4:	30 e0       	ldi	r19, 0x00	; 0
    16b6:	30 93 56 05 	sts	0x0556, r19
    16ba:	20 93 55 05 	sts	0x0555, r18
    16be:	90 93 58 05 	sts	0x0558, r25
    16c2:	80 93 57 05 	sts	0x0557, r24
    16c6:	23 e0       	ldi	r18, 0x03	; 3
    16c8:	30 e0       	ldi	r19, 0x00	; 0
    16ca:	30 93 5a 05 	sts	0x055A, r19
    16ce:	20 93 59 05 	sts	0x0559, r18
    16d2:	90 93 5c 05 	sts	0x055C, r25
    16d6:	80 93 5b 05 	sts	0x055B, r24
    16da:	42 e0       	ldi	r20, 0x02	; 2
    16dc:	50 e0       	ldi	r21, 0x00	; 0
    16de:	50 93 5e 05 	sts	0x055E, r21
    16e2:	40 93 5d 05 	sts	0x055D, r20
    16e6:	10 92 3b 05 	sts	0x053B, r1
    16ea:	10 92 3a 05 	sts	0x053A, r1
    16ee:	90 93 3d 05 	sts	0x053D, r25
    16f2:	80 93 3c 05 	sts	0x053C, r24
    16f6:	10 92 37 05 	sts	0x0537, r1
    16fa:	10 92 36 05 	sts	0x0536, r1
    16fe:	90 93 39 05 	sts	0x0539, r25
    1702:	80 93 38 05 	sts	0x0538, r24
    1706:	10 92 33 05 	sts	0x0533, r1
    170a:	10 92 32 05 	sts	0x0532, r1
    170e:	90 93 35 05 	sts	0x0535, r25
    1712:	80 93 34 05 	sts	0x0534, r24
    1716:	30 93 2e 05 	sts	0x052E, r19
    171a:	20 93 2d 05 	sts	0x052D, r18
    171e:	86 e0       	ldi	r24, 0x06	; 6
    1720:	90 e0       	ldi	r25, 0x00	; 0
    1722:	90 93 30 05 	sts	0x0530, r25
    1726:	80 93 2f 05 	sts	0x052F, r24
    172a:	08 95       	ret

0000172c <__divmodhi4>:
    172c:	97 fb       	bst	r25, 7
    172e:	09 2e       	mov	r0, r25
    1730:	07 26       	eor	r0, r23
    1732:	0a d0       	rcall	.+20     	; 0x1748 <__divmodhi4_neg1>
    1734:	77 fd       	sbrc	r23, 7
    1736:	04 d0       	rcall	.+8      	; 0x1740 <__divmodhi4_neg2>
    1738:	0c d0       	rcall	.+24     	; 0x1752 <__udivmodhi4>
    173a:	06 d0       	rcall	.+12     	; 0x1748 <__divmodhi4_neg1>
    173c:	00 20       	and	r0, r0
    173e:	1a f4       	brpl	.+6      	; 0x1746 <__divmodhi4_exit>

00001740 <__divmodhi4_neg2>:
    1740:	70 95       	com	r23
    1742:	61 95       	neg	r22
    1744:	7f 4f       	sbci	r23, 0xFF	; 255

00001746 <__divmodhi4_exit>:
    1746:	08 95       	ret

00001748 <__divmodhi4_neg1>:
    1748:	f6 f7       	brtc	.-4      	; 0x1746 <__divmodhi4_exit>
    174a:	90 95       	com	r25
    174c:	81 95       	neg	r24
    174e:	9f 4f       	sbci	r25, 0xFF	; 255
    1750:	08 95       	ret

00001752 <__udivmodhi4>:
    1752:	aa 1b       	sub	r26, r26
    1754:	bb 1b       	sub	r27, r27
    1756:	51 e1       	ldi	r21, 0x11	; 17
    1758:	07 c0       	rjmp	.+14     	; 0x1768 <__udivmodhi4_ep>

0000175a <__udivmodhi4_loop>:
    175a:	aa 1f       	adc	r26, r26
    175c:	bb 1f       	adc	r27, r27
    175e:	a6 17       	cp	r26, r22
    1760:	b7 07       	cpc	r27, r23
    1762:	10 f0       	brcs	.+4      	; 0x1768 <__udivmodhi4_ep>
    1764:	a6 1b       	sub	r26, r22
    1766:	b7 0b       	sbc	r27, r23

00001768 <__udivmodhi4_ep>:
    1768:	88 1f       	adc	r24, r24
    176a:	99 1f       	adc	r25, r25
    176c:	5a 95       	dec	r21
    176e:	a9 f7       	brne	.-22     	; 0x175a <__udivmodhi4_loop>
    1770:	80 95       	com	r24
    1772:	90 95       	com	r25
    1774:	bc 01       	movw	r22, r24
    1776:	cd 01       	movw	r24, r26
    1778:	08 95       	ret

0000177a <__tablejump2__>:
    177a:	ee 0f       	add	r30, r30
    177c:	ff 1f       	adc	r31, r31

0000177e <__tablejump__>:
    177e:	05 90       	lpm	r0, Z+
    1780:	f4 91       	lpm	r31, Z
    1782:	e0 2d       	mov	r30, r0
    1784:	09 94       	ijmp

00001786 <_exit>:
    1786:	f8 94       	cli

00001788 <__stop_program>:
    1788:	ff cf       	rjmp	.-2      	; 0x1788 <__stop_program>
